; Listing generated by Microsoft (R) Optimizing Compiler Version 19.00.24215.1 

	TITLE	e:\developments\cadaqs\canamespace\castudio\xcross\xlang\xlang\xlibrarys\qxlibrary\qxlibrary\generatedfiles\release\moc_qxapplication.cpp
	.686P
	.XMM
	include listing.inc
	.model	flat

INCLUDELIB OLDNAMES

PUBLIC	?staticMetaObject@QXApplication@@2UQMetaObject@@B ; QXApplication::staticMetaObject
PUBLIC	?staticMetaObject@ActionReceiver@@2UQMetaObject@@B ; ActionReceiver::staticMetaObject
EXTRN	??0QVariant@@QAE@HPBXI@Z:PROC			; QVariant::QVariant
EXTRN	?type@QVariant@@QBE?AW4Type@1@XZ:PROC		; QVariant::type
EXTRN	?qt_metacast@QApplication@@UAEPAXPBD@Z:PROC	; QApplication::qt_metacast
EXTRN	?qt_metacall@QApplication@@UAEHW4Call@QMetaObject@@HPAPAX@Z:PROC ; QApplication::qt_metacall
EXTRN	?dynamicMetaObject@QObjectData@@QBEPAUQMetaObject@@XZ:PROC ; QObjectData::dynamicMetaObject
EXTRN	?staticMetaObject@QApplication@@2UQMetaObject@@B:BYTE ; QApplication::staticMetaObject
EXTRN	?staticMetaObject@QTreeWidget@@2UQMetaObject@@B:BYTE ; QTreeWidget::staticMetaObject
EXTRN	?qt_metacast@QObject@@UAEPAXPBD@Z:PROC		; QObject::qt_metacast
EXTRN	?qt_metacall@QObject@@UAEHW4Call@QMetaObject@@HPAPAX@Z:PROC ; QObject::qt_metacall
EXTRN	?sender@QObject@@IBEPAV1@XZ:PROC		; QObject::sender
	ORG $+4
?qt_meta_stringdata_QXApplication@@3Uqt_meta_stringdata_QXApplication_t@@B DD 0ffffffffH ; qt_meta_stringdata_QXApplication
	DD	0dH
	DD	00H
	DD	010H
	DB	'QXApplication', 00H
	ORG $+2
?staticMetaObject@QXApplication@@2UQMetaObject@@B DD FLAT:?staticMetaObject@QApplication@@2UQMetaObject@@B ; QXApplication::staticMetaObject
	DD	FLAT:?qt_meta_stringdata_QXApplication@@3Uqt_meta_stringdata_QXApplication_t@@B
	DD	FLAT:?qt_meta_data_QXApplication@@3QBIB
	DD	FLAT:?qt_static_metacall@QXApplication@@CAXPAVQObject@@W4Call@QMetaObject@@HPAPAX@Z
	DD	00H
	DD	00H
?staticMetaObject@ActionReceiver@@2UQMetaObject@@B DD FLAT:?staticMetaObject@QObject@@2UQMetaObject@@B ; ActionReceiver::staticMetaObject
	DD	FLAT:?qt_meta_stringdata_ActionReceiver@@3Uqt_meta_stringdata_ActionReceiver_t@@B
	DD	FLAT:?qt_meta_data_ActionReceiver@@3QBIB
	DD	FLAT:?qt_static_metacall@ActionReceiver@@CAXPAVQObject@@W4Call@QMetaObject@@HPAPAX@Z
	DD	00H
	DD	00H
	ORG $+4
?qt_meta_stringdata_ActionReceiver@@3Uqt_meta_stringdata_ActionReceiver_t@@B DD 0ffffffffH ; qt_meta_stringdata_ActionReceiver
	DD	0eH
	DD	00H
	DD	0920H
	DD	0ffffffffH
	DD	0fH
	DD	00H
	DD	091fH
	DD	0ffffffffH
	DD	00H
	DD	00H
	DD	091fH
	DD	0ffffffffH
	DD	03H
	DD	00H
	DD	0910H
	DD	0ffffffffH
	DD	0dH
	DD	00H
	DD	0904H
	DD	0ffffffffH
	DD	010H
	DD	00H
	DD	0902H
	DD	0ffffffffH
	DD	04H
	DD	00H
	DD	0903H
	DD	0ffffffffH
	DD	06H
	DD	00H
	DD	08f8H
	DD	0ffffffffH
	DD	0dH
	DD	00H
	DD	08efH
	DD	0ffffffffH
	DD	013H
	DD	00H
	DD	08edH
	DD	0ffffffffH
	DD	0fH
	DD	00H
	DD	08f1H
	DD	0ffffffffH
	DD	0dH
	DD	00H
	DD	08f1H
	DD	0ffffffffH
	DD	0dH
	DD	00H
	DD	08efH
	DD	0ffffffffH
	DD	0eH
	DD	00H
	DD	08edH
	DD	0ffffffffH
	DD	0fH
	DD	00H
	DD	08ecH
	DD	0ffffffffH
	DD	014H
	DD	00H
	DD	08ecH
	DD	0ffffffffH
	DD	07H
	DD	00H
	DD	08f1H
	DD	0ffffffffH
	DD	08H
	DD	00H
	DD	08e9H
	DD	0ffffffffH
	DD	016H
	DD	00H
	DD	08e2H
	DD	0ffffffffH
	DD	0aH
	DD	00H
	DD	08e9H
	DD	0ffffffffH
	DD	07H
	DD	00H
	DD	08e4H
	DD	0ffffffffH
	DD	0aH
	DD	00H
	DD	08dcH
	DD	0ffffffffH
	DD	0aH
	DD	00H
	DD	08d7H
	DD	0ffffffffH
	DD	0bH
	DD	00H
	DD	08d2H
	DD	0ffffffffH
	DD	08H
	DD	00H
	DD	08ceH
	DD	0ffffffffH
	DD	03H
	DD	00H
	DD	08c7H
	DD	0ffffffffH
	DD	011H
	DD	00H
	DD	08bbH
	DD	0ffffffffH
	DD	03H
	DD	00H
	DD	08bdH
	DD	0ffffffffH
	DD	0bH
	DD	00H
	DD	08b1H
	DD	0ffffffffH
	DD	05H
	DD	00H
	DD	08adH
	DD	0ffffffffH
	DD	010H
	DD	00H
	DD	08a3H
	DD	0ffffffffH
	DD	04H
	DD	00H
	DD	08a4H
	DD	0ffffffffH
	DD	015H
	DD	00H
	DD	0899H
	DD	0ffffffffH
	DD	015H
	DD	00H
	DD	089fH
	DD	0ffffffffH
	DD	08H
	DD	00H
	DD	08a5H
	DD	0ffffffffH
	DD	08H
	DD	00H
	DD	089eH
	DD	0ffffffffH
	DD	0fH
	DD	00H
	DD	0897H
	DD	0ffffffffH
	DD	03H
	DD	00H
	DD	0897H
	DD	0ffffffffH
	DD	013H
	DD	00H
	DD	088bH
	DD	0ffffffffH
	DD	018H
	DD	00H
	DD	088fH
	DD	0ffffffffH
	DD	04H
	DD	00H
	DD	0898H
	DD	0ffffffffH
	DD	09H
	DD	00H
	DD	088dH
	DD	0ffffffffH
	DD	04H
	DD	00H
	DD	0887H
	DD	0ffffffffH
	DD	0dH
	DD	00H
	DD	087cH
	DD	0ffffffffH
	DD	027H
	DD	00H
	DD	087aH
	DD	0ffffffffH
	DD	04H
	DD	00H
	DD	0892H
	DD	0ffffffffH
	DD	05H
	DD	00H
	DD	0887H
	DD	0ffffffffH
	DD	06H
	DD	00H
	DD	087dH
	DD	0ffffffffH
	DD	012H
	DD	00H
	DD	0874H
	DD	0ffffffffH
	DD	014H
	DD	00H
	DD	0877H
	DD	0ffffffffH
	DD	012H
	DD	00H
	DD	087cH
	DD	0ffffffffH
	DD	0bH
	DD	00H
	DD	087fH
	DD	0ffffffffH
	DD	09H
	DD	00H
	DD	087bH
	DD	0ffffffffH
	DD	08H
	DD	00H
	DD	0875H
	DD	0ffffffffH
	DD	02H
	DD	00H
	DD	086eH
	DD	0ffffffffH
	DD	06H
	DD	00H
	DD	0861H
	DD	0ffffffffH
	DD	012H
	DD	00H
	DD	0858H
	DD	0ffffffffH
	DD	0bH
	DD	00H
	DD	085bH
	DD	0ffffffffH
	DD	010H
	DD	00H
	DD	0857H
	DD	0ffffffffH
	DD	09H
	DD	00H
	DD	0858H
	DD	0ffffffffH
	DD	0dH
	DD	00H
	DD	0852H
	DD	0ffffffffH
	DD	09H
	DD	00H
	DD	0850H
	DD	0ffffffffH
	DD	0fH
	DD	00H
	DD	084aH
	DD	0ffffffffH
	DD	04H
	DD	00H
	DD	084aH
	DD	0ffffffffH
	DD	09H
	DD	00H
	DD	083fH
	DD	0ffffffffH
	DD	0cH
	DD	00H
	DD	0839H
	DD	0ffffffffH
	DD	01H
	DD	00H
	DD	0836H
	DD	0ffffffffH
	DD	01H
	DD	00H
	DD	0828H
	DD	0ffffffffH
	DD	0eH
	DD	00H
	DD	081aH
	DD	0ffffffffH
	DD	0bH
	DD	00H
	DD	0819H
	DD	0ffffffffH
	DD	0cH
	DD	00H
	DD	0815H
	DD	0ffffffffH
	DD	010H
	DD	00H
	DD	0812H
	DD	0ffffffffH
	DD	016H
	DD	00H
	DD	0813H
	DD	0ffffffffH
	DD	017H
	DD	00H
	DD	081aH
	DD	0ffffffffH
	DD	012H
	DD	00H
	DD	0822H
	DD	0ffffffffH
	DD	014H
	DD	00H
	DD	0825H
	DD	0ffffffffH
	DD	0fH
	DD	00H
	DD	082aH
	DD	0ffffffffH
	DD	03H
	DD	00H
	DD	082aH
	DD	0ffffffffH
	DD	06H
	DD	00H
	DD	081eH
	DD	0ffffffffH
	DD	06H
	DD	00H
	DD	0815H
	DD	0ffffffffH
	DD	0fH
	DD	00H
	DD	080cH
	DD	0ffffffffH
	DD	06H
	DD	00H
	DD	080cH
	DD	0ffffffffH
	DD	014H
	DD	00H
	DD	0803H
	DD	0ffffffffH
	DD	0cH
	DD	00H
	DD	0808H
	DD	0ffffffffH
	DD	07H
	DD	00H
	DD	0805H
	DD	0ffffffffH
	DD	04H
	DD	00H
	DD	07fdH
	DD	0ffffffffH
	DD	06H
	DD	00H
	DD	07f2H
	DD	0ffffffffH
	DD	0aH
	DD	00H
	DD	07e9H
	DD	0ffffffffH
	DD	0cH
	DD	00H
	DD	07e4H
	DD	0ffffffffH
	DD	0dH
	DD	00H
	DD	07e1H
	DD	0ffffffffH
	DD	05H
	DD	00H
	DD	07dfH
	DD	0ffffffffH
	DD	014H
	DD	00H
	DD	07d5H
	DD	0ffffffffH
	DD	013H
	DD	00H
	DD	07daH
	DD	0ffffffffH
	DD	0dH
	DD	00H
	DD	07deH
	DD	0ffffffffH
	DD	0bH
	DD	00H
	DD	07dcH
	DD	0ffffffffH
	DD	011H
	DD	00H
	DD	07d8H
	DD	0ffffffffH
	DD	014H
	DD	00H
	DD	07daH
	DD	0ffffffffH
	DD	0fH
	DD	00H
	DD	07dfH
	DD	0ffffffffH
	DD	0cH
	DD	00H
	DD	07dfH
	DD	0ffffffffH
	DD	07H
	DD	00H
	DD	07dcH
	DD	0ffffffffH
	DD	015H
	DD	00H
	DD	07d4H
	DD	0ffffffffH
	DD	08H
	DD	00H
	DD	07daH
	DD	0ffffffffH
	DD	0dH
	DD	00H
	DD	07d3H
	DD	0ffffffffH
	DD	017H
	DD	00H
	DD	07d1H
	DD	0ffffffffH
	DD	012H
	DD	00H
	DD	07d9H
	DD	0ffffffffH
	DD	0cH
	DD	00H
	DD	07dcH
	DD	0ffffffffH
	DD	0bH
	DD	00H
	DD	07d9H
	DD	0ffffffffH
	DD	016H
	DD	00H
	DD	07d5H
	DD	0ffffffffH
	DD	01H
	DD	00H
	DD	07dcH
	DD	0ffffffffH
	DD	01H
	DD	00H
	DD	07ceH
	DD	0ffffffffH
	DD	0eH
	DD	00H
	DD	07c0H
	DD	0ffffffffH
	DD	010H
	DD	00H
	DD	07bfH
	DD	0ffffffffH
	DD	0bH
	DD	00H
	DD	07c0H
	DD	0ffffffffH
	DD	03H
	DD	00H
	DD	07bcH
	DD	0ffffffffH
	DD	012H
	DD	00H
	DD	07b0H
	DD	0ffffffffH
	DD	09H
	DD	00H
	DD	07b3H
	DD	0ffffffffH
	DD	07H
	DD	00H
	DD	07adH
	DD	0ffffffffH
	DD	0fH
	DD	00H
	DD	07a5H
	DD	0ffffffffH
	DD	011H
	DD	00H
	DD	07a5H
	DD	0ffffffffH
	DD	0bH
	DD	00H
	DD	07a7H
	DD	0ffffffffH
	DD	0fH
	DD	00H
	DD	07a3H
	DD	0ffffffffH
	DD	0dH
	DD	00H
	DD	07a3H
	DD	0ffffffffH
	DD	011H
	DD	00H
	DD	07a1H
	DD	0ffffffffH
	DD	0bH
	DD	00H
	DD	07a3H
	DD	0ffffffffH
	DD	0fH
	DD	00H
	DD	079fH
	DD	0ffffffffH
	DD	0cH
	DD	00H
	DD	079fH
	DD	0ffffffffH
	DD	010H
	DD	00H
	DD	079cH
	DD	0ffffffffH
	DD	0dH
	DD	00H
	DD	079dH
	DD	0ffffffffH
	DD	011H
	DD	00H
	DD	079bH
	DD	0ffffffffH
	DD	011H
	DD	00H
	DD	079dH
	DD	0ffffffffH
	DD	0eH
	DD	00H
	DD	079fH
	DD	0ffffffffH
	DD	0bH
	DD	00H
	DD	079eH
	DD	0ffffffffH
	DD	08H
	DD	00H
	DD	079aH
	DD	0ffffffffH
	DD	03H
	DD	00H
	DD	0793H
	DD	0ffffffffH
	DD	012H
	DD	00H
	DD	0787H
	DD	0ffffffffH
	DD	09H
	DD	00H
	DD	078aH
	DD	0ffffffffH
	DD	0dH
	DD	00H
	DD	0784H
	DD	0ffffffffH
	DD	012H
	DD	00H
	DD	0782H
	DD	0ffffffffH
	DD	011H
	DD	00H
	DD	0785H
	DD	0ffffffffH
	DD	0eH
	DD	00H
	DD	0787H
	DD	0ffffffffH
	DD	0fH
	DD	00H
	DD	0786H
	DD	0ffffffffH
	DD	08H
	DD	00H
	DD	0786H
	DD	0ffffffffH
	DD	0bH
	DD	00H
	DD	077fH
	DD	0ffffffffH
	DD	04H
	DD	00H
	DD	077bH
	DD	0ffffffffH
	DD	0bH
	DD	00H
	DD	0770H
	DD	0ffffffffH
	DD	04H
	DD	00H
	DD	076cH
	DB	'ActionReceiver', 00H, 'ActionTriggered', 00H, 00H, 'act', 00H
	DB	'tritemPressed', 00H, 'QTreeWidgetItem*', 00H, 'item', 00H, 'c'
	DB	'olumn', 00H, 'tritemClicked', 00H, 'tritemDoubleClicked', 00H
	DB	'tritemActivated', 00H, 'tritemEntered', 00H, 'tritemChanged', 00H
	DB	'tritemExpanded', 00H, 'tritemCollapsed', 00H, 'trcurrentItemC'
	DB	'hanged', 00H, 'current', 00H, 'previous', 00H, 'tritemSelecti'
	DB	'onChanged', 00H, 'btnclicked', 00H, 'checked', 00H, 'btntoggl'
	DB	'ed', 00H, 'btnpressed', 00H, 'btnreleased', 00H, 'onFinish', 00H
	DB	'res', 00H, 'onEditTextChanged', 00H, 'str', 00H, 'onActivated'
	DB	00H, 'index', 00H, 'onfswFileChanged', 00H, 'path', 00H, 'onfs'
	DB	'wDirectoryChanged', 00H, 'onCurrentIndexChanged', 00H, 'onAcc'
	DB	'ept', 00H, 'onReject', 00H, 'QSCN_SELCHANGED', 00H, 'yes', 00H
	DB	'slotGetCallbackData', 00H, 'LimeReport::CallbackInfo', 00H, 'i'
	DB	'nfo', 00H, 'QVariant&', 00H, 'data', 00H, 'slotChangePos', 00H
	DB	'LimeReport::CallbackInfo::ChangePosType', 00H, 'type', 00H, 'b'
	DB	'ool&', 00H, 'result', 00H, 'SCN_AUTOCCANCELLED', 00H, 'SCN_AU'
	DB	'TOCCHARDELETED', 00H, 'SCN_AUTOCCOMPLETED', 00H, 'const char*'
	DB	00H, 'selection', 00H, 'position', 00H, 'ch', 00H, 'method', 00H
	DB	'SCN_AUTOCSELECTION', 00H, 'SCEN_CHANGE', 00H, 'SCN_CALLTIPCLI'
	DB	'CK', 00H, 'direction', 00H, 'SCN_CHARADDED', 00H, 'charadded', 00H
	DB	'SCN_DOUBLECLICK', 00H, 'line', 00H, 'modifiers', 00H, 'SCN_DW'
	DB	'ELLEND', 00H, 'x', 00H, 'y', 00H, 'SCN_DWELLSTART', 00H, 'SCN'
	DB	'_FOCUSIN', 00H, 'SCN_FOCUSOUT', 00H, 'SCN_HOTSPOTCLICK', 00H, 'S'
	DB	'CN_HOTSPOTDOUBLECLICK', 00H, 'SCN_HOTSPOTRELEASECLICK', 00H, 'S'
	DB	'CN_INDICATORCLICK', 00H, 'SCN_INDICATORRELEASE', 00H, 'SCN_MA'
	DB	'CRORECORD', 00H, 'msg', 00H, 'wparam', 00H, 'lparam', 00H, 'S'
	DB	'CN_MARGINCLICK', 00H, 'margin', 00H, 'SCN_MARGINRIGHTCLICK', 00H
	DB	'SCN_MODIFIED', 00H, 'modType', 00H, 'text', 00H, 'length', 00H
	DB	'linesAdded', 00H, 'foldLevelNow', 00H, 'foldLevelPrev', 00H, 't'
	DB	'oken', 00H, 'annotationLinesAdded', 00H, 'SCN_MODIFYATTEMPTRO'
	DB	00H, 'SCN_NEEDSHOWN', 00H, 'SCN_PAINTED', 00H, 'SCN_SAVEPOINTL'
	DB	'EFT', 00H, 'SCN_SAVEPOINTREACHED', 00H, 'SCN_STYLENEEDED', 00H
	DB	'SCN_UPDATEUI', 00H, 'updated', 00H, 'SCN_USERLISTSELECTION', 00H
	DB	'SCN_ZOOM', 00H, 'tetextChanged', 00H, 'tecursorPositionChange'
	DB	'd', 00H, 'teselectionChanged', 00H, 'etextChanged', 00H, 'ete'
	DB	'xtEdited', 00H, 'ecursorPositionChanged', 00H, 'a', 00H, 'b', 00H
	DB	'ereturnPressed', 00H, 'eeditingFinished', 00H, 'oncellPress', 00H
	DB	'row', 00H, 'onPreviewRequested', 00H, 'QPrinter*', 00H, 'prin'
	DB	'ter', 00H, 'oncellItemPress', 00H, 'QTableWidgetItem*', 00H, 'o'
	DB	'ncellClick', 00H, 'oncellItemClick', 00H, 'oncellDBClick', 00H
	DB	'oncellItemDBClick', 00H, 'oncellEnter', 00H, 'oncellItemEnter'
	DB	00H, 'oncellActive', 00H, 'oncellItemActive', 00H, 'oncellChan'
	DB	'ged', 00H, 'oncellItemChanged', 00H, 'eselectionChanged', 00H
	DB	'onValueChanged', 00H, 'QtProperty*', 00H, 'property', 00H, 'v'
	DB	'al', 00H, 'onAttributeChanged', 00H, 'attribute', 00H, 'rende'
	DB	'rStarted', 00H, 'renderPageFinished', 00H, 'renderedPageCount'
	DB	00H, 'renderFinished', 00H, 'dateTimeChanged', 00H, 'dateTime', 00H
	DB	'timeChanged', 00H, 'time', 00H, 'dateChanged', 00H, 'date', 00H
	ORG $+3
?qt_meta_data_QXApplication@@3QBIB DD 07H		; qt_meta_data_QXApplication
	DD	00H
	DD	00H
	DD	00H
	DD	00H
	DD	00H
	DD	00H
	DD	00H
	DD	00H
	DD	00H
	DD	00H
	DD	00H
	DD	00H
	DD	00H
	DD	00H
?qt_meta_data_ActionReceiver@@3QBIB DD 07H		; qt_meta_data_ActionReceiver
	DD	00H
	DD	00H
	DD	00H
	DD	059H
	DD	0eH
	DD	00H
	DD	00H
	DD	00H
	DD	00H
	DD	00H
	DD	00H
	DD	00H
	DD	00H
	DD	01H
	DD	01H
	DD	01cbH
	DD	02H
	DD	08H
	DD	04H
	DD	02H
	DD	01ceH
	DD	02H
	DD	08H
	DD	08H
	DD	02H
	DD	01d3H
	DD	02H
	DD	08H
	DD	09H
	DD	02H
	DD	01d8H
	DD	02H
	DD	08H
	DD	0aH
	DD	02H
	DD	01ddH
	DD	02H
	DD	08H
	DD	0bH
	DD	02H
	DD	01e2H
	DD	02H
	DD	08H
	DD	0cH
	DD	02H
	DD	01e7H
	DD	02H
	DD	08H
	DD	0dH
	DD	01H
	DD	01ecH
	DD	02H
	DD	08H
	DD	0eH
	DD	01H
	DD	01efH
	DD	02H
	DD	08H
	DD	0fH
	DD	02H
	DD	01f2H
	DD	02H
	DD	08H
	DD	012H
	DD	00H
	DD	01f7H
	DD	02H
	DD	08H
	DD	013H
	DD	01H
	DD	01f8H
	DD	02H
	DD	08H
	DD	015H
	DD	01H
	DD	01fbH
	DD	02H
	DD	08H
	DD	016H
	DD	00H
	DD	01feH
	DD	02H
	DD	08H
	DD	017H
	DD	00H
	DD	01ffH
	DD	02H
	DD	08H
	DD	018H
	DD	01H
	DD	0200H
	DD	02H
	DD	08H
	DD	01aH
	DD	01H
	DD	0203H
	DD	02H
	DD	08H
	DD	01cH
	DD	01H
	DD	0206H
	DD	02H
	DD	08H
	DD	01eH
	DD	01H
	DD	0209H
	DD	02H
	DD	08H
	DD	020H
	DD	01H
	DD	020cH
	DD	02H
	DD	08H
	DD	021H
	DD	01H
	DD	020fH
	DD	02H
	DD	08H
	DD	022H
	DD	00H
	DD	0212H
	DD	02H
	DD	08H
	DD	023H
	DD	00H
	DD	0213H
	DD	02H
	DD	08H
	DD	024H
	DD	01H
	DD	0214H
	DD	02H
	DD	08H
	DD	026H
	DD	02H
	DD	0217H
	DD	02H
	DD	08H
	DD	02bH
	DD	02H
	DD	021cH
	DD	02H
	DD	08H
	DD	030H
	DD	00H
	DD	0221H
	DD	02H
	DD	08H
	DD	031H
	DD	00H
	DD	0222H
	DD	02H
	DD	08H
	DD	032H
	DD	04H
	DD	0223H
	DD	02H
	DD	08H
	DD	038H
	DD	04H
	DD	022cH
	DD	02H
	DD	08H
	DD	038H
	DD	02H
	DD	0235H
	DD	02H
	DD	08H
	DD	039H
	DD	00H
	DD	023aH
	DD	02H
	DD	08H
	DD	03aH
	DD	01H
	DD	023bH
	DD	02H
	DD	08H
	DD	03cH
	DD	01H
	DD	023eH
	DD	02H
	DD	08H
	DD	03eH
	DD	03H
	DD	0241H
	DD	02H
	DD	08H
	DD	041H
	DD	03H
	DD	0248H
	DD	02H
	DD	08H
	DD	044H
	DD	03H
	DD	024fH
	DD	02H
	DD	08H
	DD	045H
	DD	00H
	DD	0256H
	DD	02H
	DD	08H
	DD	046H
	DD	00H
	DD	0257H
	DD	02H
	DD	08H
	DD	047H
	DD	02H
	DD	0258H
	DD	02H
	DD	08H
	DD	048H
	DD	02H
	DD	025dH
	DD	02H
	DD	08H
	DD	049H
	DD	02H
	DD	0262H
	DD	02H
	DD	08H
	DD	04aH
	DD	02H
	DD	0267H
	DD	02H
	DD	08H
	DD	04bH
	DD	02H
	DD	026cH
	DD	02H
	DD	08H
	DD	04cH
	DD	03H
	DD	0271H
	DD	02H
	DD	08H
	DD	050H
	DD	03H
	DD	0278H
	DD	02H
	DD	08H
	DD	052H
	DD	03H
	DD	027fH
	DD	02H
	DD	08H
	DD	053H
	DD	0aH
	DD	0286H
	DD	02H
	DD	08H
	DD	05cH
	DD	00H
	DD	029bH
	DD	02H
	DD	08H
	DD	05dH
	DD	02H
	DD	029cH
	DD	02H
	DD	08H
	DD	05eH
	DD	00H
	DD	02a1H
	DD	02H
	DD	08H
	DD	05fH
	DD	00H
	DD	02a2H
	DD	02H
	DD	08H
	DD	060H
	DD	00H
	DD	02a3H
	DD	02H
	DD	08H
	DD	061H
	DD	01H
	DD	02a4H
	DD	02H
	DD	08H
	DD	062H
	DD	01H
	DD	02a7H
	DD	02H
	DD	08H
	DD	064H
	DD	04H
	DD	02aaH
	DD	02H
	DD	08H
	DD	064H
	DD	02H
	DD	02b3H
	DD	02H
	DD	08H
	DD	065H
	DD	00H
	DD	02b8H
	DD	02H
	DD	08H
	DD	066H
	DD	00H
	DD	02b9H
	DD	02H
	DD	08H
	DD	067H
	DD	00H
	DD	02baH
	DD	02H
	DD	08H
	DD	068H
	DD	00H
	DD	02bbH
	DD	02H
	DD	08H
	DD	069H
	DD	01H
	DD	02bcH
	DD	02H
	DD	08H
	DD	06aH
	DD	01H
	DD	02bfH
	DD	02H
	DD	08H
	DD	06bH
	DD	02H
	DD	02c2H
	DD	02H
	DD	08H
	DD	06eH
	DD	00H
	DD	02c7H
	DD	02H
	DD	08H
	DD	06fH
	DD	00H
	DD	02c8H
	DD	02H
	DD	08H
	DD	070H
	DD	02H
	DD	02c9H
	DD	02H
	DD	08H
	DD	072H
	DD	01H
	DD	02ceH
	DD	02H
	DD	08H
	DD	075H
	DD	01H
	DD	02d1H
	DD	02H
	DD	08H
	DD	077H
	DD	02H
	DD	02d4H
	DD	02H
	DD	08H
	DD	078H
	DD	01H
	DD	02d9H
	DD	02H
	DD	08H
	DD	079H
	DD	02H
	DD	02dcH
	DD	02H
	DD	08H
	DD	07aH
	DD	01H
	DD	02e1H
	DD	02H
	DD	08H
	DD	07bH
	DD	02H
	DD	02e4H
	DD	02H
	DD	08H
	DD	07cH
	DD	01H
	DD	02e9H
	DD	02H
	DD	08H
	DD	07dH
	DD	02H
	DD	02ecH
	DD	02H
	DD	08H
	DD	07eH
	DD	01H
	DD	02f1H
	DD	02H
	DD	08H
	DD	07fH
	DD	02H
	DD	02f4H
	DD	02H
	DD	08H
	DD	080H
	DD	01H
	DD	02f9H
	DD	02H
	DD	08H
	DD	081H
	DD	00H
	DD	02fcH
	DD	02H
	DD	08H
	DD	082H
	DD	02H
	DD	02fdH
	DD	02H
	DD	08H
	DD	082H
	DD	02H
	DD	0302H
	DD	02H
	DD	08H
	DD	086H
	DD	03H
	DD	0307H
	DD	02H
	DD	08H
	DD	088H
	DD	00H
	DD	030eH
	DD	02H
	DD	08H
	DD	089H
	DD	01H
	DD	030fH
	DD	02H
	DD	08H
	DD	08bH
	DD	00H
	DD	0312H
	DD	02H
	DD	08H
	DD	08cH
	DD	01H
	DD	0313H
	DD	02H
	DD	08H
	DD	08eH
	DD	01H
	DD	0316H
	DD	02H
	DD	08H
	DD	090H
	DD	01H
	DD	0319H
	DD	02H
	DD	08H
	DD	01H
	DD	027H
	DD	03H
	DD	02bH
	DD	080000005H
	DD	02H
	DD	06H
	DD	07H
	DD	02bH
	DD	080000005H
	DD	02H
	DD	06H
	DD	07H
	DD	02bH
	DD	080000005H
	DD	02H
	DD	06H
	DD	07H
	DD	02bH
	DD	080000005H
	DD	02H
	DD	06H
	DD	07H
	DD	02bH
	DD	080000005H
	DD	02H
	DD	06H
	DD	07H
	DD	02bH
	DD	080000005H
	DD	02H
	DD	06H
	DD	07H
	DD	02bH
	DD	080000005H
	DD	06H
	DD	02bH
	DD	080000005H
	DD	06H
	DD	02bH
	DD	080000005H
	DD	080000005H
	DD	010H
	DD	011H
	DD	02bH
	DD	02bH
	DD	01H
	DD	014H
	DD	02bH
	DD	01H
	DD	014H
	DD	02bH
	DD	02bH
	DD	02bH
	DD	02H
	DD	019H
	DD	02bH
	DD	0aH
	DD	01bH
	DD	02bH
	DD	02H
	DD	01dH
	DD	02bH
	DD	0aH
	DD	01fH
	DD	02bH
	DD	0aH
	DD	01fH
	DD	02bH
	DD	02H
	DD	01dH
	DD	02bH
	DD	02bH
	DD	02bH
	DD	01H
	DD	025H
	DD	02bH
	DD	080000027H
	DD	080000029H
	DD	028H
	DD	02aH
	DD	02bH
	DD	08000002cH
	DD	08000002eH
	DD	02dH
	DD	02fH
	DD	02bH
	DD	02bH
	DD	02bH
	DD	080000033H
	DD	02H
	DD	02H
	DD	02H
	DD	034H
	DD	035H
	DD	036H
	DD	037H
	DD	02bH
	DD	080000033H
	DD	02H
	DD	02H
	DD	02H
	DD	034H
	DD	035H
	DD	036H
	DD	037H
	DD	02bH
	DD	080000033H
	DD	02H
	DD	034H
	DD	035H
	DD	02bH
	DD	02bH
	DD	02H
	DD	03bH
	DD	02bH
	DD	02H
	DD	03dH
	DD	02bH
	DD	02H
	DD	02H
	DD	02H
	DD	035H
	DD	03fH
	DD	040H
	DD	02bH
	DD	02H
	DD	02H
	DD	02H
	DD	035H
	DD	042H
	DD	043H
	DD	02bH
	DD	02H
	DD	02H
	DD	02H
	DD	035H
	DD	042H
	DD	043H
	DD	02bH
	DD	02bH
	DD	02bH
	DD	02H
	DD	02H
	DD	035H
	DD	040H
	DD	02bH
	DD	02H
	DD	02H
	DD	035H
	DD	040H
	DD	02bH
	DD	02H
	DD	02H
	DD	035H
	DD	040H
	DD	02bH
	DD	02H
	DD	02H
	DD	035H
	DD	040H
	DD	02bH
	DD	02H
	DD	02H
	DD	035H
	DD	040H
	DD	02bH
	DD	03H
	DD	023H
	DD	01fH
	DD	04dH
	DD	04eH
	DD	04fH
	DD	02bH
	DD	02H
	DD	02H
	DD	02H
	DD	035H
	DD	040H
	DD	051H
	DD	02bH
	DD	02H
	DD	02H
	DD	02H
	DD	035H
	DD	040H
	DD	051H
	DD	02bH
	DD	02H
	DD	02H
	DD	080000033H
	DD	02H
	DD	02H
	DD	02H
	DD	02H
	DD	02H
	DD	02H
	DD	02H
	DD	035H
	DD	054H
	DD	055H
	DD	056H
	DD	057H
	DD	03fH
	DD	058H
	DD	059H
	DD	05aH
	DD	05bH
	DD	02bH
	DD	02bH
	DD	02H
	DD	02H
	DD	035H
	DD	056H
	DD	02bH
	DD	02bH
	DD	02bH
	DD	02bH
	DD	02H
	DD	035H
	DD	02bH
	DD	02H
	DD	063H
	DD	02bH
	DD	080000033H
	DD	02H
	DD	02H
	DD	02H
	DD	02H
	DD	02H
	DD	02H
	DD	02H
	DD	02bH
	DD	080000033H
	DD	02H
	DD	055H
	DD	056H
	DD	02bH
	DD	02bH
	DD	02bH
	DD	02bH
	DD	02bH
	DD	0aH
	DD	01bH
	DD	02bH
	DD	0aH
	DD	01bH
	DD	02bH
	DD	02H
	DD	02H
	DD	06cH
	DD	06dH
	DD	02bH
	DD	02bH
	DD	02bH
	DD	02H
	DD	02H
	DD	071H
	DD	07H
	DD	02bH
	DD	080000073H
	DD	074H
	DD	02bH
	DD	080000076H
	DD	06H
	DD	02bH
	DD	02H
	DD	02H
	DD	071H
	DD	07H
	DD	02bH
	DD	080000076H
	DD	06H
	DD	02bH
	DD	02H
	DD	02H
	DD	071H
	DD	07H
	DD	02bH
	DD	080000076H
	DD	06H
	DD	02bH
	DD	02H
	DD	02H
	DD	071H
	DD	07H
	DD	02bH
	DD	080000076H
	DD	06H
	DD	02bH
	DD	02H
	DD	02H
	DD	071H
	DD	07H
	DD	02bH
	DD	080000076H
	DD	06H
	DD	02bH
	DD	02H
	DD	02H
	DD	071H
	DD	07H
	DD	02bH
	DD	080000076H
	DD	06H
	DD	02bH
	DD	02bH
	DD	080000083H
	DD	02H
	DD	084H
	DD	085H
	DD	02bH
	DD	080000083H
	DD	029H
	DD	084H
	DD	085H
	DD	02bH
	DD	080000083H
	DD	0aH
	DD	029H
	DD	084H
	DD	087H
	DD	085H
	DD	02bH
	DD	02bH
	DD	02H
	DD	08aH
	DD	02bH
	DD	02bH
	DD	010H
	DD	08dH
	DD	02bH
	DD	0fH
	DD	08fH
	DD	02bH
	DD	0eH
	DD	091H
	DD	00H
CONST	ENDS
PUBLIC	??$push_Args@PAVXObject@@PAV1@PAV1@PAV1@PAV1@PAV1@PAV1@PAV1@@XNLEnv@@QAEHPAVXContext@@PAVXObject@@1111111@Z ; XNLEnv::push_Args<XObject *,XObject *,XObject *,XObject *,XObject *,XObject *,XObject *,XObject *>
PUBLIC	??$Invoke_helper@PADH$$V@XNLEnv@@QAEPAVXObject@@PAVXContext@@PAV1@HHPAD@Z ; XNLEnv::Invoke_helper<char *,int>
PUBLIC	??$Invoke_helper@_JH$$V@XNLEnv@@QAEPAVXObject@@PAVXContext@@PAV1@HH_J@Z ; XNLEnv::Invoke_helper<__int64,int>
PUBLIC	??$push_Args@PAVXObject@@PAV1@PAV1@PAV1@PAV1@PAV1@PAV1@PAV1@PAV1@@XNLEnv@@QAEHPAVXContext@@PAVXObject@@11111111@Z ; XNLEnv::push_Args<XObject *,XObject *,XObject *,XObject *,XObject *,XObject *,XObject *,XObject *,XObject *>
PUBLIC	??$qMetaTypeId@_N@@YAHXZ			; qMetaTypeId<bool>
PUBLIC	??$qMetaTypeId@N@@YAHXZ				; qMetaTypeId<double>
PUBLIC	??$qMetaTypeId@F@@YAHXZ				; qMetaTypeId<short>
PUBLIC	??$qMetaTypeId@G@@YAHXZ				; qMetaTypeId<unsigned short>
PUBLIC	??$qMetaTypeId@E@@YAHXZ				; qMetaTypeId<unsigned char>
PUBLIC	??$Invoke_helper@HHPAD@XNLEnv@@QAEPAVXObject@@PAVXContext@@PAV1@HHHPAD@Z ; XNLEnv::Invoke_helper<int,int,char *>
PUBLIC	??$move@AAUPrivate@QVariant@@@std@@YA$$QAUPrivate@QVariant@@AAU12@@Z ; std::move<QVariant::Private &>
PUBLIC	??$qMetaTypeId@H@@YAHXZ				; qMetaTypeId<int>
PUBLIC	??$Invoke@HHHH@XNLEnv@@QAEPAVXObject@@PAVXContext@@PAV1@HHHH@Z ; XNLEnv::Invoke<int,int,int,int>
PUBLIC	??$Invoke@HHHHH@XNLEnv@@QAEPAVXObject@@PAVXContext@@PAV1@HHHHH@Z ; XNLEnv::Invoke<int,int,int,int,int>
PUBLIC	??$Invoke@_JH$$V@XNLEnv@@QAEPAVXObject@@PAVXContext@@PAV1@H_J@Z ; XNLEnv::Invoke<__int64,int>
PUBLIC	??$push_Args@PAVXObject@@PAV1@PAV1@PAV1@PAV1@PAV1@PAV1@PAV1@PAV1@PAV1@@XNLEnv@@QAEHPAVXContext@@PAVXObject@@111111111@Z ; XNLEnv::push_Args<XObject *,XObject *,XObject *,XObject *,XObject *,XObject *,XObject *,XObject *,XObject *,XObject *>
PUBLIC	??$Invoke@HH$$V@XNLEnv@@QAEPAVXObject@@PAVXContext@@PAV1@HH@Z ; XNLEnv::Invoke<int,int>
PUBLIC	??$qVariantSetValue@VQString@@@@YAXAAVQVariant@@ABVQString@@@Z ; qVariantSetValue<QString>
PUBLIC	??$qVariantSetValue@_N@@YAXAAVQVariant@@AB_N@Z	; qVariantSetValue<bool>
PUBLIC	??$qVariantSetValue@N@@YAXAAVQVariant@@ABN@Z	; qVariantSetValue<double>
PUBLIC	??$qVariantSetValue@_J@@YAXAAVQVariant@@AB_J@Z	; qVariantSetValue<__int64>
PUBLIC	??$qVariantSetValue@H@@YAXAAVQVariant@@ABH@Z	; qVariantSetValue<int>
PUBLIC	??$qVariantSetValue@F@@YAXAAVQVariant@@ABF@Z	; qVariantSetValue<short>
PUBLIC	??$qVariantSetValue@G@@YAXAAVQVariant@@ABG@Z	; qVariantSetValue<unsigned short>
PUBLIC	??$qVariantSetValue@E@@YAXAAVQVariant@@ABE@Z	; qVariantSetValue<unsigned char>
PUBLIC	??$Invoke_helper@HHHPAD@XNLEnv@@QAEPAVXObject@@PAVXContext@@PAV1@HHHHPAD@Z ; XNLEnv::Invoke_helper<int,int,int,char *>
PUBLIC	??$qMetaTypeId@VQString@@@@YAHXZ		; qMetaTypeId<QString>
PUBLIC	??$swap@UPrivate@QVariant@@X@std@@YAXAAUPrivate@QVariant@@0@Z ; std::swap<QVariant::Private,void>
PUBLIC	??$move@AA_N@std@@YA$$QA_NAA_N@Z		; std::move<bool &>
PUBLIC	??$void_Invoke@HHHH@XNLEnv@@QAEXPAVXContext@@PAVXObject@@HHHH@Z ; XNLEnv::void_Invoke<int,int,int,int>
PUBLIC	??$void_Invoke@HHHHH@XNLEnv@@QAEXPAVXContext@@PAVXObject@@HHHHH@Z ; XNLEnv::void_Invoke<int,int,int,int,int>
PUBLIC	??$void_Invoke@_JH$$V@XNLEnv@@QAEXPAVXContext@@PAVXObject@@H_J@Z ; XNLEnv::void_Invoke<__int64,int>
PUBLIC	??$void_invoke@PAVXObject@@PAV1@PAV1@PAV1@PAV1@PAV1@PAV1@PAV1@PAV1@PAV1@@XNLEnv@@QAEXPAVXContext@@PAVXObject@@H1111111111@Z ; XNLEnv::void_invoke<XObject *,XObject *,XObject *,XObject *,XObject *,XObject *,XObject *,XObject *,XObject *,XObject *>
PUBLIC	??$bool_Invoke@HH$$V@XNLEnv@@QAE_NPAVXContext@@PAVXObject@@HH@Z ; XNLEnv::bool_Invoke<int,int>
PUBLIC	??$setValue@VQString@@@QVariant@@QAEXABVQString@@@Z ; QVariant::setValue<QString>
PUBLIC	??$setValue@_N@QVariant@@QAEXAB_N@Z		; QVariant::setValue<bool>
PUBLIC	??$setValue@N@QVariant@@QAEXABN@Z		; QVariant::setValue<double>
PUBLIC	??$setValue@_J@QVariant@@QAEXAB_J@Z		; QVariant::setValue<__int64>
PUBLIC	??$setValue@H@QVariant@@QAEXABH@Z		; QVariant::setValue<int>
PUBLIC	??$setValue@F@QVariant@@QAEXABF@Z		; QVariant::setValue<short>
PUBLIC	??$setValue@G@QVariant@@QAEXABG@Z		; QVariant::setValue<unsigned short>
PUBLIC	??$setValue@E@QVariant@@QAEXABE@Z		; QVariant::setValue<unsigned char>
PUBLIC	??$Invoke@HHHPAD@XNLEnv@@QAEPAVXObject@@PAVXContext@@PAV1@HHHPAD@Z ; XNLEnv::Invoke<int,int,int,char *>
PUBLIC	??$qobject_cast@PAVQObject@@@@YAPAVQObject@@PAV0@@Z ; qobject_cast<QObject *>
PUBLIC	??$void_invoke@PAVXObject@@PAV1@@XNLEnv@@QAEXPAVXContext@@PAVXObject@@H11@Z ; XNLEnv::void_invoke<XObject *,XObject *>
PUBLIC	??$qobject_cast@PAVQTreeWidget@@@@YAPAVQTreeWidget@@PAVQObject@@@Z ; qobject_cast<QTreeWidget *>
PUBLIC	??$qSwap@UPrivate@QVariant@@@@YAXAAUPrivate@QVariant@@0@Z ; qSwap<QVariant::Private>
PUBLIC	??0CallbackInfo@LimeReport@@QAE@ABU01@@Z	; LimeReport::CallbackInfo::CallbackInfo
PUBLIC	?qt_static_metacall@ActionReceiver@@CAXPAVQObject@@W4Call@QMetaObject@@HPAPAX@Z ; ActionReceiver::qt_static_metacall
PUBLIC	?qt_static_metacall@QXApplication@@CAXPAVQObject@@W4Call@QMetaObject@@HPAPAX@Z ; QXApplication::qt_static_metacall
PUBLIC	??1CallbackInfo@LimeReport@@QAE@XZ		; LimeReport::CallbackInfo::~CallbackInfo
PUBLIC	?dateChanged@ActionReceiver@@AAEXABVQDate@@@Z	; ActionReceiver::dateChanged
PUBLIC	?timeChanged@ActionReceiver@@AAEXABVQTime@@@Z	; ActionReceiver::timeChanged
PUBLIC	?dateTimeChanged@ActionReceiver@@AAEXABVQDateTime@@@Z ; ActionReceiver::dateTimeChanged
PUBLIC	?renderFinished@ActionReceiver@@AAEXXZ		; ActionReceiver::renderFinished
PUBLIC	?renderPageFinished@ActionReceiver@@AAEXH@Z	; ActionReceiver::renderPageFinished
PUBLIC	?renderStarted@ActionReceiver@@AAEXXZ		; ActionReceiver::renderStarted
PUBLIC	?onAttributeChanged@ActionReceiver@@AAEXPAVQtProperty@@ABVQString@@ABVQVariant@@@Z ; ActionReceiver::onAttributeChanged
PUBLIC	?onValueChanged@ActionReceiver@@AAEXPAVQtProperty@@ABVQVariant@@@Z ; ActionReceiver::onValueChanged
PUBLIC	?onValueChanged@ActionReceiver@@AAEXPAVQtProperty@@H@Z ; ActionReceiver::onValueChanged
PUBLIC	?eselectionChanged@ActionReceiver@@AAEXXZ	; ActionReceiver::eselectionChanged
PUBLIC	?oncellItemChanged@ActionReceiver@@AAEXPAVQTableWidgetItem@@@Z ; ActionReceiver::oncellItemChanged
PUBLIC	?oncellChanged@ActionReceiver@@AAEXHH@Z		; ActionReceiver::oncellChanged
PUBLIC	?oncellItemActive@ActionReceiver@@AAEXPAVQTableWidgetItem@@@Z ; ActionReceiver::oncellItemActive
PUBLIC	?oncellActive@ActionReceiver@@AAEXHH@Z		; ActionReceiver::oncellActive
PUBLIC	?oncellItemEnter@ActionReceiver@@AAEXPAVQTableWidgetItem@@@Z ; ActionReceiver::oncellItemEnter
PUBLIC	?oncellEnter@ActionReceiver@@AAEXHH@Z		; ActionReceiver::oncellEnter
PUBLIC	?oncellItemDBClick@ActionReceiver@@AAEXPAVQTableWidgetItem@@@Z ; ActionReceiver::oncellItemDBClick
PUBLIC	?oncellDBClick@ActionReceiver@@AAEXHH@Z		; ActionReceiver::oncellDBClick
PUBLIC	?oncellItemClick@ActionReceiver@@AAEXPAVQTableWidgetItem@@@Z ; ActionReceiver::oncellItemClick
PUBLIC	?oncellClick@ActionReceiver@@AAEXHH@Z		; ActionReceiver::oncellClick
PUBLIC	?oncellItemPress@ActionReceiver@@AAEXPAVQTableWidgetItem@@@Z ; ActionReceiver::oncellItemPress
PUBLIC	?onPreviewRequested@ActionReceiver@@AAEXPAVQPrinter@@@Z ; ActionReceiver::onPreviewRequested
PUBLIC	?oncellPress@ActionReceiver@@AAEXHH@Z		; ActionReceiver::oncellPress
PUBLIC	?eeditingFinished@ActionReceiver@@AAEXXZ	; ActionReceiver::eeditingFinished
PUBLIC	?ereturnPressed@ActionReceiver@@AAEXXZ		; ActionReceiver::ereturnPressed
PUBLIC	?ecursorPositionChanged@ActionReceiver@@AAEXHH@Z ; ActionReceiver::ecursorPositionChanged
PUBLIC	?etextEdited@ActionReceiver@@AAEXABVQString@@@Z	; ActionReceiver::etextEdited
PUBLIC	?etextChanged@ActionReceiver@@AAEXABVQString@@@Z ; ActionReceiver::etextChanged
PUBLIC	?teselectionChanged@ActionReceiver@@AAEXXZ	; ActionReceiver::teselectionChanged
PUBLIC	?tecursorPositionChanged@ActionReceiver@@AAEXXZ	; ActionReceiver::tecursorPositionChanged
PUBLIC	?tetextChanged@ActionReceiver@@AAEXXZ		; ActionReceiver::tetextChanged
PUBLIC	?SCN_ZOOM@ActionReceiver@@AAEXXZ		; ActionReceiver::SCN_ZOOM
PUBLIC	?SCN_USERLISTSELECTION@ActionReceiver@@AAEXPBDH@Z ; ActionReceiver::SCN_USERLISTSELECTION
PUBLIC	?SCN_USERLISTSELECTION@ActionReceiver@@AAEXPBDHHH@Z ; ActionReceiver::SCN_USERLISTSELECTION
PUBLIC	?SCN_UPDATEUI@ActionReceiver@@AAEXH@Z		; ActionReceiver::SCN_UPDATEUI
PUBLIC	?SCN_STYLENEEDED@ActionReceiver@@AAEXH@Z	; ActionReceiver::SCN_STYLENEEDED
PUBLIC	?SCN_SAVEPOINTREACHED@ActionReceiver@@AAEXXZ	; ActionReceiver::SCN_SAVEPOINTREACHED
PUBLIC	?SCN_SAVEPOINTLEFT@ActionReceiver@@AAEXXZ	; ActionReceiver::SCN_SAVEPOINTLEFT
PUBLIC	?SCN_PAINTED@ActionReceiver@@AAEXXZ		; ActionReceiver::SCN_PAINTED
PUBLIC	?SCN_NEEDSHOWN@ActionReceiver@@AAEXHH@Z		; ActionReceiver::SCN_NEEDSHOWN
PUBLIC	?SCN_MODIFYATTEMPTRO@ActionReceiver@@AAEXXZ	; ActionReceiver::SCN_MODIFYATTEMPTRO
PUBLIC	?SCN_MODIFIED@ActionReceiver@@AAEXHHPBDHHHHHHH@Z ; ActionReceiver::SCN_MODIFIED
PUBLIC	?SCN_MARGINRIGHTCLICK@ActionReceiver@@AAEXHHH@Z	; ActionReceiver::SCN_MARGINRIGHTCLICK
PUBLIC	?SCN_MARGINCLICK@ActionReceiver@@AAEXHHH@Z	; ActionReceiver::SCN_MARGINCLICK
PUBLIC	?SCN_MACRORECORD@ActionReceiver@@AAEXIKPAX@Z	; ActionReceiver::SCN_MACRORECORD
PUBLIC	?SCN_INDICATORRELEASE@ActionReceiver@@AAEXHH@Z	; ActionReceiver::SCN_INDICATORRELEASE
PUBLIC	?SCN_INDICATORCLICK@ActionReceiver@@AAEXHH@Z	; ActionReceiver::SCN_INDICATORCLICK
PUBLIC	?SCN_HOTSPOTRELEASECLICK@ActionReceiver@@AAEXHH@Z ; ActionReceiver::SCN_HOTSPOTRELEASECLICK
PUBLIC	?SCN_HOTSPOTDOUBLECLICK@ActionReceiver@@AAEXHH@Z ; ActionReceiver::SCN_HOTSPOTDOUBLECLICK
PUBLIC	?SCN_HOTSPOTCLICK@ActionReceiver@@AAEXHH@Z	; ActionReceiver::SCN_HOTSPOTCLICK
PUBLIC	?SCN_FOCUSOUT@ActionReceiver@@AAEXXZ		; ActionReceiver::SCN_FOCUSOUT
PUBLIC	?SCN_FOCUSIN@ActionReceiver@@AAEXXZ		; ActionReceiver::SCN_FOCUSIN
PUBLIC	?SCN_DWELLSTART@ActionReceiver@@AAEXHHH@Z	; ActionReceiver::SCN_DWELLSTART
PUBLIC	?SCN_DWELLEND@ActionReceiver@@AAEXHHH@Z		; ActionReceiver::SCN_DWELLEND
PUBLIC	?SCN_DOUBLECLICK@ActionReceiver@@AAEXHHH@Z	; ActionReceiver::SCN_DOUBLECLICK
PUBLIC	?SCN_CHARADDED@ActionReceiver@@AAEXH@Z		; ActionReceiver::SCN_CHARADDED
PUBLIC	?SCN_CALLTIPCLICK@ActionReceiver@@AAEXH@Z	; ActionReceiver::SCN_CALLTIPCLICK
PUBLIC	?SCEN_CHANGE@ActionReceiver@@AAEXXZ		; ActionReceiver::SCEN_CHANGE
PUBLIC	?SCN_AUTOCSELECTION@ActionReceiver@@AAEXPBDH@Z	; ActionReceiver::SCN_AUTOCSELECTION
PUBLIC	?SCN_AUTOCSELECTION@ActionReceiver@@AAEXPBDHHH@Z ; ActionReceiver::SCN_AUTOCSELECTION
PUBLIC	?SCN_AUTOCCOMPLETED@ActionReceiver@@AAEXPBDHHH@Z ; ActionReceiver::SCN_AUTOCCOMPLETED
PUBLIC	?SCN_AUTOCCHARDELETED@ActionReceiver@@AAEXXZ	; ActionReceiver::SCN_AUTOCCHARDELETED
PUBLIC	?SCN_AUTOCCANCELLED@ActionReceiver@@AAEXXZ	; ActionReceiver::SCN_AUTOCCANCELLED
PUBLIC	?slotChangePos@ActionReceiver@@AAEXABW4ChangePosType@CallbackInfo@LimeReport@@AA_N@Z ; ActionReceiver::slotChangePos
PUBLIC	?slotGetCallbackData@ActionReceiver@@AAEXUCallbackInfo@LimeReport@@AAVQVariant@@@Z ; ActionReceiver::slotGetCallbackData
PUBLIC	?QSCN_SELCHANGED@ActionReceiver@@AAEX_N@Z	; ActionReceiver::QSCN_SELCHANGED
PUBLIC	?onReject@ActionReceiver@@AAEXXZ		; ActionReceiver::onReject
PUBLIC	?onAccept@ActionReceiver@@AAEXXZ		; ActionReceiver::onAccept
PUBLIC	?onCurrentIndexChanged@ActionReceiver@@AAEXH@Z	; ActionReceiver::onCurrentIndexChanged
PUBLIC	?onfswDirectoryChanged@ActionReceiver@@AAEXVQString@@@Z ; ActionReceiver::onfswDirectoryChanged
PUBLIC	?onfswFileChanged@ActionReceiver@@AAEXVQString@@@Z ; ActionReceiver::onfswFileChanged
PUBLIC	?onActivated@ActionReceiver@@AAEXH@Z		; ActionReceiver::onActivated
PUBLIC	?onEditTextChanged@ActionReceiver@@AAEXABVQString@@@Z ; ActionReceiver::onEditTextChanged
PUBLIC	?onFinish@ActionReceiver@@AAEXH@Z		; ActionReceiver::onFinish
PUBLIC	?btnreleased@ActionReceiver@@AAEXXZ		; ActionReceiver::btnreleased
PUBLIC	?btnpressed@ActionReceiver@@AAEXXZ		; ActionReceiver::btnpressed
PUBLIC	?btntoggled@ActionReceiver@@AAEX_N@Z		; ActionReceiver::btntoggled
PUBLIC	?btnclicked@ActionReceiver@@AAEX_N@Z		; ActionReceiver::btnclicked
PUBLIC	?tritemSelectionChanged@ActionReceiver@@AAEXXZ	; ActionReceiver::tritemSelectionChanged
PUBLIC	?trcurrentItemChanged@ActionReceiver@@AAEXPAVQTreeWidgetItem@@0@Z ; ActionReceiver::trcurrentItemChanged
PUBLIC	?tritemCollapsed@ActionReceiver@@AAEXPAVQTreeWidgetItem@@@Z ; ActionReceiver::tritemCollapsed
PUBLIC	?tritemExpanded@ActionReceiver@@AAEXPAVQTreeWidgetItem@@@Z ; ActionReceiver::tritemExpanded
PUBLIC	?tritemChanged@ActionReceiver@@AAEXPAVQTreeWidgetItem@@H@Z ; ActionReceiver::tritemChanged
PUBLIC	?tritemEntered@ActionReceiver@@AAEXPAVQTreeWidgetItem@@H@Z ; ActionReceiver::tritemEntered
PUBLIC	?tritemActivated@ActionReceiver@@AAEXPAVQTreeWidgetItem@@H@Z ; ActionReceiver::tritemActivated
PUBLIC	?tritemDoubleClicked@ActionReceiver@@AAEXPAVQTreeWidgetItem@@H@Z ; ActionReceiver::tritemDoubleClicked
PUBLIC	?tritemClicked@ActionReceiver@@AAEXPAVQTreeWidgetItem@@H@Z ; ActionReceiver::tritemClicked
PUBLIC	?tritemPressed@ActionReceiver@@AAEXPAVQTreeWidgetItem@@H@Z ; ActionReceiver::tritemPressed
PUBLIC	?ActionTriggered@ActionReceiver@@AAE_NPAVQObject@@@Z ; ActionReceiver::ActionTriggered
PUBLIC	?isDetached@QVariant@@QBE_NXZ			; QVariant::isDetached
PUBLIC	?data_ptr@QVariant@@QAEAAUPrivate@1@XZ		; QVariant::data_ptr
PUBLIC	??0Private@QVariant@@QAE@ABU01@@Z		; QVariant::Private::Private
PUBLIC	??0Private@QVariant@@QAE@XZ			; QVariant::Private::Private
PUBLIC	??4QVariant@@QAEAAV0@$$QAV0@@Z			; QVariant::operator=
PUBLIC	??0QVariant@@QAE@XZ				; QVariant::QVariant
PUBLIC	?qt_metatype_id@?$QMetaTypeId2@VQString@@@@SAHXZ ; QMetaTypeId2<QString>::qt_metatype_id
PUBLIC	?qt_metatype_id@?$QMetaTypeId2@E@@SAHXZ		; QMetaTypeId2<unsigned char>::qt_metatype_id
PUBLIC	?qt_metatype_id@?$QMetaTypeId2@G@@SAHXZ		; QMetaTypeId2<unsigned short>::qt_metatype_id
PUBLIC	?qt_metatype_id@?$QMetaTypeId2@F@@SAHXZ		; QMetaTypeId2<short>::qt_metatype_id
PUBLIC	?qt_metatype_id@?$QMetaTypeId2@N@@SAHXZ		; QMetaTypeId2<double>::qt_metatype_id
PUBLIC	?qt_metatype_id@?$QMetaTypeId2@H@@SAHXZ		; QMetaTypeId2<int>::qt_metatype_id
PUBLIC	?qt_metatype_id@?$QMetaTypeId2@_N@@SAHXZ	; QMetaTypeId2<bool>::qt_metatype_id
PUBLIC	?qt_metacall@QXApplication@@UAEHW4Call@QMetaObject@@HPAPAX@Z ; QXApplication::qt_metacall
PUBLIC	?qt_metacast@QXApplication@@UAEPAXPBD@Z		; QXApplication::qt_metacast
PUBLIC	?metaObject@QXApplication@@UBEPBUQMetaObject@@XZ ; QXApplication::metaObject
PUBLIC	?qt_metacall@ActionReceiver@@UAEHW4Call@QMetaObject@@HPAPAX@Z ; ActionReceiver::qt_metacall
PUBLIC	?qt_metacast@ActionReceiver@@UAEPAXPBD@Z	; ActionReceiver::qt_metacast
PUBLIC	?metaObject@ActionReceiver@@UBEPBUQMetaObject@@XZ ; ActionReceiver::metaObject
?NAMED_VARIABLE_RX@Const@LimeReport@@3VQString@@B DD 01H DUP (?) ; LimeReport::Const::NAMED_VARIABLE_RX
?bandTAG@Const@LimeReport@@3VQString@@B DD 01H DUP (?)	; LimeReport::Const::bandTAG
?GROUP_FUNCTION_PARAM_RX@Const@LimeReport@@3VQString@@B DD 01H DUP (?) ; LimeReport::Const::GROUP_FUNCTION_PARAM_RX
?DATAFUNCTIONS_MANAGER_NAME@Const@LimeReport@@3VQString@@B DD 01H DUP (?) ; LimeReport::Const::DATAFUNCTIONS_MANAGER_NAME
?FUNCTION_MANAGER_NAME@Const@LimeReport@@3VQString@@B DD 01H DUP (?) ; LimeReport::Const::FUNCTION_MANAGER_NAME
?GROUP_FUNCTION_NAME_RX@Const@LimeReport@@3VQString@@B DD 01H DUP (?) ; LimeReport::Const::GROUP_FUNCTION_NAME_RX
?GROUP_FUNCTION_RX@Const@LimeReport@@3VQString@@B DD 01H DUP (?) ; LimeReport::Const::GROUP_FUNCTION_RX
?SCRIPT_RX@Const@LimeReport@@3VQString@@B DD 01H DUP (?) ; LimeReport::Const::SCRIPT_RX
?VARIABLE_RX@Const@LimeReport@@3VQString@@B DD 01H DUP (?) ; LimeReport::Const::VARIABLE_RX
?EOW@Const@LimeReport@@3VQString@@B DD 01H DUP (?)	; LimeReport::Const::EOW
?FIELD_RX@Const@LimeReport@@3VQString@@B DD 01H DUP (?)	; LimeReport::Const::FIELD_RX
_BSS	ENDS
;	COMDAT xdata$x
xdata$x	SEGMENT
__ehfuncinfo$??__EGROUP_FUNCTION_RX@Const@LimeReport@@YAXXZ DD 019930522H
	DD	01H
	DD	FLAT:__unwindtable$??__EGROUP_FUNCTION_RX@Const@LimeReport@@YAXXZ
	DD	2 DUP(00H)
	DD	2 DUP(00H)
	DD	00H
	DD	01H
__unwindtable$??__EGROUP_FUNCTION_RX@Const@LimeReport@@YAXXZ DD 0ffffffffH
	DD	FLAT:__unwindfunclet$??__EGROUP_FUNCTION_RX@Const@LimeReport@@YAXXZ$0
xdata$x	ENDS
;	COMDAT xdata$x
xdata$x	SEGMENT
__ehfuncinfo$?ActionTriggered@ActionReceiver@@AAE_NPAVQObject@@@Z DD 019930522H
	DD	03H
	DD	FLAT:__unwindtable$?ActionTriggered@ActionReceiver@@AAE_NPAVQObject@@@Z
	DD	2 DUP(00H)
	DD	2 DUP(00H)
	DD	00H
	DD	01H
__unwindtable$?ActionTriggered@ActionReceiver@@AAE_NPAVQObject@@@Z DD 0ffffffffH
	DD	FLAT:__unwindfunclet$?ActionTriggered@ActionReceiver@@AAE_NPAVQObject@@@Z$0
	DD	00H
	DD	FLAT:__unwindfunclet$?ActionTriggered@ActionReceiver@@AAE_NPAVQObject@@@Z$1
	DD	00H
	DD	FLAT:__unwindfunclet$?ActionTriggered@ActionReceiver@@AAE_NPAVQObject@@@Z$2
xdata$x	ENDS
;	COMDAT xdata$x
xdata$x	SEGMENT
__ehfuncinfo$?tritemPressed@ActionReceiver@@AAEXPAVQTreeWidgetItem@@H@Z DD 019930522H
	DD	02H
	DD	FLAT:__unwindtable$?tritemPressed@ActionReceiver@@AAEXPAVQTreeWidgetItem@@H@Z
	DD	2 DUP(00H)
	DD	2 DUP(00H)
	DD	00H
	DD	01H
__unwindtable$?tritemPressed@ActionReceiver@@AAEXPAVQTreeWidgetItem@@H@Z DD 0ffffffffH
	DD	FLAT:__unwindfunclet$?tritemPressed@ActionReceiver@@AAEXPAVQTreeWidgetItem@@H@Z$0
	DD	0ffffffffH
	DD	FLAT:__unwindfunclet$?tritemPressed@ActionReceiver@@AAEXPAVQTreeWidgetItem@@H@Z$1
xdata$x	ENDS
;	COMDAT xdata$x
xdata$x	SEGMENT
__ehfuncinfo$?tritemClicked@ActionReceiver@@AAEXPAVQTreeWidgetItem@@H@Z DD 019930522H
	DD	02H
	DD	FLAT:__unwindtable$?tritemClicked@ActionReceiver@@AAEXPAVQTreeWidgetItem@@H@Z
	DD	2 DUP(00H)
	DD	2 DUP(00H)
	DD	00H
	DD	01H
__unwindtable$?tritemClicked@ActionReceiver@@AAEXPAVQTreeWidgetItem@@H@Z DD 0ffffffffH
	DD	FLAT:__unwindfunclet$?tritemClicked@ActionReceiver@@AAEXPAVQTreeWidgetItem@@H@Z$0
	DD	0ffffffffH
	DD	FLAT:__unwindfunclet$?tritemClicked@ActionReceiver@@AAEXPAVQTreeWidgetItem@@H@Z$1
xdata$x	ENDS
;	COMDAT xdata$x
xdata$x	SEGMENT
__ehfuncinfo$?tritemDoubleClicked@ActionReceiver@@AAEXPAVQTreeWidgetItem@@H@Z DD 019930522H
	DD	02H
	DD	FLAT:__unwindtable$?tritemDoubleClicked@ActionReceiver@@AAEXPAVQTreeWidgetItem@@H@Z
	DD	2 DUP(00H)
	DD	2 DUP(00H)
	DD	00H
	DD	01H
__unwindtable$?tritemDoubleClicked@ActionReceiver@@AAEXPAVQTreeWidgetItem@@H@Z DD 0ffffffffH
	DD	FLAT:__unwindfunclet$?tritemDoubleClicked@ActionReceiver@@AAEXPAVQTreeWidgetItem@@H@Z$0
	DD	0ffffffffH
	DD	FLAT:__unwindfunclet$?tritemDoubleClicked@ActionReceiver@@AAEXPAVQTreeWidgetItem@@H@Z$1
xdata$x	ENDS
;	COMDAT xdata$x
xdata$x	SEGMENT
__ehfuncinfo$?tritemActivated@ActionReceiver@@AAEXPAVQTreeWidgetItem@@H@Z DD 019930522H
	DD	02H
	DD	FLAT:__unwindtable$?tritemActivated@ActionReceiver@@AAEXPAVQTreeWidgetItem@@H@Z
	DD	2 DUP(00H)
	DD	2 DUP(00H)
	DD	00H
	DD	01H
__unwindtable$?tritemActivated@ActionReceiver@@AAEXPAVQTreeWidgetItem@@H@Z DD 0ffffffffH
	DD	FLAT:__unwindfunclet$?tritemActivated@ActionReceiver@@AAEXPAVQTreeWidgetItem@@H@Z$0
	DD	0ffffffffH
	DD	FLAT:__unwindfunclet$?tritemActivated@ActionReceiver@@AAEXPAVQTreeWidgetItem@@H@Z$1
xdata$x	ENDS
;	COMDAT xdata$x
xdata$x	SEGMENT
__ehfuncinfo$?tritemEntered@ActionReceiver@@AAEXPAVQTreeWidgetItem@@H@Z DD 019930522H
	DD	02H
	DD	FLAT:__unwindtable$?tritemEntered@ActionReceiver@@AAEXPAVQTreeWidgetItem@@H@Z
	DD	2 DUP(00H)
	DD	2 DUP(00H)
	DD	00H
	DD	01H
__unwindtable$?tritemEntered@ActionReceiver@@AAEXPAVQTreeWidgetItem@@H@Z DD 0ffffffffH
	DD	FLAT:__unwindfunclet$?tritemEntered@ActionReceiver@@AAEXPAVQTreeWidgetItem@@H@Z$0
	DD	0ffffffffH
	DD	FLAT:__unwindfunclet$?tritemEntered@ActionReceiver@@AAEXPAVQTreeWidgetItem@@H@Z$1
xdata$x	ENDS
;	COMDAT xdata$x
xdata$x	SEGMENT
__ehfuncinfo$?tritemChanged@ActionReceiver@@AAEXPAVQTreeWidgetItem@@H@Z DD 019930522H
	DD	02H
	DD	FLAT:__unwindtable$?tritemChanged@ActionReceiver@@AAEXPAVQTreeWidgetItem@@H@Z
	DD	2 DUP(00H)
	DD	2 DUP(00H)
	DD	00H
	DD	01H
__unwindtable$?tritemChanged@ActionReceiver@@AAEXPAVQTreeWidgetItem@@H@Z DD 0ffffffffH
	DD	FLAT:__unwindfunclet$?tritemChanged@ActionReceiver@@AAEXPAVQTreeWidgetItem@@H@Z$0
	DD	0ffffffffH
	DD	FLAT:__unwindfunclet$?tritemChanged@ActionReceiver@@AAEXPAVQTreeWidgetItem@@H@Z$1
xdata$x	ENDS
;	COMDAT xdata$x
xdata$x	SEGMENT
__ehfuncinfo$?tritemExpanded@ActionReceiver@@AAEXPAVQTreeWidgetItem@@@Z DD 019930522H
	DD	02H
	DD	FLAT:__unwindtable$?tritemExpanded@ActionReceiver@@AAEXPAVQTreeWidgetItem@@@Z
	DD	2 DUP(00H)
	DD	2 DUP(00H)
	DD	00H
	DD	01H
__unwindtable$?tritemExpanded@ActionReceiver@@AAEXPAVQTreeWidgetItem@@@Z DD 0ffffffffH
	DD	FLAT:__unwindfunclet$?tritemExpanded@ActionReceiver@@AAEXPAVQTreeWidgetItem@@@Z$0
	DD	0ffffffffH
	DD	FLAT:__unwindfunclet$?tritemExpanded@ActionReceiver@@AAEXPAVQTreeWidgetItem@@@Z$1
xdata$x	ENDS
;	COMDAT xdata$x
xdata$x	SEGMENT
__ehfuncinfo$?tritemCollapsed@ActionReceiver@@AAEXPAVQTreeWidgetItem@@@Z DD 019930522H
	DD	02H
	DD	FLAT:__unwindtable$?tritemCollapsed@ActionReceiver@@AAEXPAVQTreeWidgetItem@@@Z
	DD	2 DUP(00H)
	DD	2 DUP(00H)
	DD	00H
	DD	01H
__unwindtable$?tritemCollapsed@ActionReceiver@@AAEXPAVQTreeWidgetItem@@@Z DD 0ffffffffH
	DD	FLAT:__unwindfunclet$?tritemCollapsed@ActionReceiver@@AAEXPAVQTreeWidgetItem@@@Z$0
	DD	0ffffffffH
	DD	FLAT:__unwindfunclet$?tritemCollapsed@ActionReceiver@@AAEXPAVQTreeWidgetItem@@@Z$1
xdata$x	ENDS
;	COMDAT xdata$x
xdata$x	SEGMENT
__ehfuncinfo$?trcurrentItemChanged@ActionReceiver@@AAEXPAVQTreeWidgetItem@@0@Z DD 019930522H
	DD	02H
	DD	FLAT:__unwindtable$?trcurrentItemChanged@ActionReceiver@@AAEXPAVQTreeWidgetItem@@0@Z
	DD	2 DUP(00H)
	DD	2 DUP(00H)
	DD	00H
	DD	01H
__unwindtable$?trcurrentItemChanged@ActionReceiver@@AAEXPAVQTreeWidgetItem@@0@Z DD 0ffffffffH
	DD	FLAT:__unwindfunclet$?trcurrentItemChanged@ActionReceiver@@AAEXPAVQTreeWidgetItem@@0@Z$0
	DD	0ffffffffH
	DD	FLAT:__unwindfunclet$?trcurrentItemChanged@ActionReceiver@@AAEXPAVQTreeWidgetItem@@0@Z$1
xdata$x	ENDS
;	COMDAT xdata$x
xdata$x	SEGMENT
__ehfuncinfo$?tritemSelectionChanged@ActionReceiver@@AAEXXZ DD 019930522H
	DD	02H
	DD	FLAT:__unwindtable$?tritemSelectionChanged@ActionReceiver@@AAEXXZ
	DD	2 DUP(00H)
	DD	2 DUP(00H)
	DD	00H
	DD	01H
__unwindtable$?tritemSelectionChanged@ActionReceiver@@AAEXXZ DD 0ffffffffH
	DD	FLAT:__unwindfunclet$?tritemSelectionChanged@ActionReceiver@@AAEXXZ$0
	DD	0ffffffffH
	DD	FLAT:__unwindfunclet$?tritemSelectionChanged@ActionReceiver@@AAEXXZ$1
xdata$x	ENDS
;	COMDAT xdata$x
xdata$x	SEGMENT
__ehfuncinfo$?btnclicked@ActionReceiver@@AAEX_N@Z DD 019930522H
	DD	02H
	DD	FLAT:__unwindtable$?btnclicked@ActionReceiver@@AAEX_N@Z
	DD	2 DUP(00H)
	DD	2 DUP(00H)
	DD	00H
	DD	01H
__unwindtable$?btnclicked@ActionReceiver@@AAEX_N@Z DD 0ffffffffH
	DD	FLAT:__unwindfunclet$?btnclicked@ActionReceiver@@AAEX_N@Z$0
	DD	0ffffffffH
	DD	FLAT:__unwindfunclet$?btnclicked@ActionReceiver@@AAEX_N@Z$1
xdata$x	ENDS
;	COMDAT xdata$x
xdata$x	SEGMENT
__ehfuncinfo$?btntoggled@ActionReceiver@@AAEX_N@Z DD 019930522H
	DD	02H
	DD	FLAT:__unwindtable$?btntoggled@ActionReceiver@@AAEX_N@Z
	DD	2 DUP(00H)
	DD	2 DUP(00H)
	DD	00H
	DD	01H
__unwindtable$?btntoggled@ActionReceiver@@AAEX_N@Z DD 0ffffffffH
	DD	FLAT:__unwindfunclet$?btntoggled@ActionReceiver@@AAEX_N@Z$0
	DD	0ffffffffH
	DD	FLAT:__unwindfunclet$?btntoggled@ActionReceiver@@AAEX_N@Z$1
xdata$x	ENDS
;	COMDAT xdata$x
xdata$x	SEGMENT
__ehfuncinfo$?btnpressed@ActionReceiver@@AAEXXZ DD 019930522H
	DD	02H
	DD	FLAT:__unwindtable$?btnpressed@ActionReceiver@@AAEXXZ
	DD	2 DUP(00H)
	DD	2 DUP(00H)
	DD	00H
	DD	01H
__unwindtable$?btnpressed@ActionReceiver@@AAEXXZ DD 0ffffffffH
	DD	FLAT:__unwindfunclet$?btnpressed@ActionReceiver@@AAEXXZ$0
	DD	0ffffffffH
	DD	FLAT:__unwindfunclet$?btnpressed@ActionReceiver@@AAEXXZ$1
xdata$x	ENDS
;	COMDAT xdata$x
xdata$x	SEGMENT
__ehfuncinfo$?btnreleased@ActionReceiver@@AAEXXZ DD 019930522H
	DD	02H
	DD	FLAT:__unwindtable$?btnreleased@ActionReceiver@@AAEXXZ
	DD	2 DUP(00H)
	DD	2 DUP(00H)
	DD	00H
	DD	01H
__unwindtable$?btnreleased@ActionReceiver@@AAEXXZ DD 0ffffffffH
	DD	FLAT:__unwindfunclet$?btnreleased@ActionReceiver@@AAEXXZ$0
	DD	0ffffffffH
	DD	FLAT:__unwindfunclet$?btnreleased@ActionReceiver@@AAEXXZ$1
xdata$x	ENDS
;	COMDAT xdata$x
xdata$x	SEGMENT
__ehfuncinfo$?onFinish@ActionReceiver@@AAEXH@Z DD 019930522H
	DD	02H
	DD	FLAT:__unwindtable$?onFinish@ActionReceiver@@AAEXH@Z
	DD	2 DUP(00H)
	DD	2 DUP(00H)
	DD	00H
	DD	01H
__unwindtable$?onFinish@ActionReceiver@@AAEXH@Z DD 0ffffffffH
	DD	FLAT:__unwindfunclet$?onFinish@ActionReceiver@@AAEXH@Z$0
	DD	0ffffffffH
	DD	FLAT:__unwindfunclet$?onFinish@ActionReceiver@@AAEXH@Z$1
xdata$x	ENDS
;	COMDAT xdata$x
xdata$x	SEGMENT
__ehfuncinfo$?onEditTextChanged@ActionReceiver@@AAEXABVQString@@@Z DD 019930522H
	DD	03H
	DD	FLAT:__unwindtable$?onEditTextChanged@ActionReceiver@@AAEXABVQString@@@Z
	DD	2 DUP(00H)
	DD	2 DUP(00H)
	DD	00H
	DD	01H
__unwindtable$?onEditTextChanged@ActionReceiver@@AAEXABVQString@@@Z DD 0ffffffffH
	DD	FLAT:__unwindfunclet$?onEditTextChanged@ActionReceiver@@AAEXABVQString@@@Z$0
	DD	00H
	DD	FLAT:__unwindfunclet$?onEditTextChanged@ActionReceiver@@AAEXABVQString@@@Z$1
	DD	0ffffffffH
	DD	FLAT:__unwindfunclet$?onEditTextChanged@ActionReceiver@@AAEXABVQString@@@Z$8
xdata$x	ENDS
;	COMDAT xdata$x
xdata$x	SEGMENT
__ehfuncinfo$?onActivated@ActionReceiver@@AAEXH@Z DD 019930522H
	DD	02H
	DD	FLAT:__unwindtable$?onActivated@ActionReceiver@@AAEXH@Z
	DD	2 DUP(00H)
	DD	2 DUP(00H)
	DD	00H
	DD	01H
__unwindtable$?onActivated@ActionReceiver@@AAEXH@Z DD 0ffffffffH
	DD	FLAT:__unwindfunclet$?onActivated@ActionReceiver@@AAEXH@Z$0
	DD	0ffffffffH
	DD	FLAT:__unwindfunclet$?onActivated@ActionReceiver@@AAEXH@Z$1
xdata$x	ENDS
;	COMDAT xdata$x
xdata$x	SEGMENT
__ehfuncinfo$?onfswFileChanged@ActionReceiver@@AAEXVQString@@@Z DD 019930522H
	DD	04H
	DD	FLAT:__unwindtable$?onfswFileChanged@ActionReceiver@@AAEXVQString@@@Z
	DD	2 DUP(00H)
	DD	2 DUP(00H)
	DD	00H
	DD	01H
__unwindtable$?onfswFileChanged@ActionReceiver@@AAEXVQString@@@Z DD 0ffffffffH
	DD	FLAT:__unwindfunclet$?onfswFileChanged@ActionReceiver@@AAEXVQString@@@Z$0
	DD	00H
	DD	FLAT:__unwindfunclet$?onfswFileChanged@ActionReceiver@@AAEXVQString@@@Z$1
	DD	01H
	DD	FLAT:__unwindfunclet$?onfswFileChanged@ActionReceiver@@AAEXVQString@@@Z$2
	DD	00H
	DD	FLAT:__unwindfunclet$?onfswFileChanged@ActionReceiver@@AAEXVQString@@@Z$9
xdata$x	ENDS
;	COMDAT xdata$x
xdata$x	SEGMENT
__ehfuncinfo$?onfswDirectoryChanged@ActionReceiver@@AAEXVQString@@@Z DD 019930522H
	DD	04H
	DD	FLAT:__unwindtable$?onfswDirectoryChanged@ActionReceiver@@AAEXVQString@@@Z
	DD	2 DUP(00H)
	DD	2 DUP(00H)
	DD	00H
	DD	01H
__unwindtable$?onfswDirectoryChanged@ActionReceiver@@AAEXVQString@@@Z DD 0ffffffffH
	DD	FLAT:__unwindfunclet$?onfswDirectoryChanged@ActionReceiver@@AAEXVQString@@@Z$0
	DD	00H
	DD	FLAT:__unwindfunclet$?onfswDirectoryChanged@ActionReceiver@@AAEXVQString@@@Z$1
	DD	01H
	DD	FLAT:__unwindfunclet$?onfswDirectoryChanged@ActionReceiver@@AAEXVQString@@@Z$2
	DD	00H
	DD	FLAT:__unwindfunclet$?onfswDirectoryChanged@ActionReceiver@@AAEXVQString@@@Z$9
xdata$x	ENDS
;	COMDAT xdata$x
xdata$x	SEGMENT
__ehfuncinfo$?onCurrentIndexChanged@ActionReceiver@@AAEXH@Z DD 019930522H
	DD	02H
	DD	FLAT:__unwindtable$?onCurrentIndexChanged@ActionReceiver@@AAEXH@Z
	DD	2 DUP(00H)
	DD	2 DUP(00H)
	DD	00H
	DD	01H
__unwindtable$?onCurrentIndexChanged@ActionReceiver@@AAEXH@Z DD 0ffffffffH
	DD	FLAT:__unwindfunclet$?onCurrentIndexChanged@ActionReceiver@@AAEXH@Z$0
	DD	0ffffffffH
	DD	FLAT:__unwindfunclet$?onCurrentIndexChanged@ActionReceiver@@AAEXH@Z$1
xdata$x	ENDS
;	COMDAT xdata$x
xdata$x	SEGMENT
__ehfuncinfo$?onAccept@ActionReceiver@@AAEXXZ DD 019930522H
	DD	02H
	DD	FLAT:__unwindtable$?onAccept@ActionReceiver@@AAEXXZ
	DD	2 DUP(00H)
	DD	2 DUP(00H)
	DD	00H
	DD	01H
__unwindtable$?onAccept@ActionReceiver@@AAEXXZ DD 0ffffffffH
	DD	FLAT:__unwindfunclet$?onAccept@ActionReceiver@@AAEXXZ$0
	DD	0ffffffffH
	DD	FLAT:__unwindfunclet$?onAccept@ActionReceiver@@AAEXXZ$1
xdata$x	ENDS
;	COMDAT xdata$x
xdata$x	SEGMENT
__ehfuncinfo$?onReject@ActionReceiver@@AAEXXZ DD 019930522H
	DD	02H
	DD	FLAT:__unwindtable$?onReject@ActionReceiver@@AAEXXZ
	DD	2 DUP(00H)
	DD	2 DUP(00H)
	DD	00H
	DD	01H
__unwindtable$?onReject@ActionReceiver@@AAEXXZ DD 0ffffffffH
	DD	FLAT:__unwindfunclet$?onReject@ActionReceiver@@AAEXXZ$0
	DD	0ffffffffH
	DD	FLAT:__unwindfunclet$?onReject@ActionReceiver@@AAEXXZ$1
xdata$x	ENDS
;	COMDAT xdata$x
xdata$x	SEGMENT
__ehfuncinfo$?QSCN_SELCHANGED@ActionReceiver@@AAEX_N@Z DD 019930522H
	DD	02H
	DD	FLAT:__unwindtable$?QSCN_SELCHANGED@ActionReceiver@@AAEX_N@Z
	DD	2 DUP(00H)
	DD	2 DUP(00H)
	DD	00H
	DD	01H
__unwindtable$?QSCN_SELCHANGED@ActionReceiver@@AAEX_N@Z DD 0ffffffffH
	DD	FLAT:__unwindfunclet$?QSCN_SELCHANGED@ActionReceiver@@AAEX_N@Z$0
	DD	0ffffffffH
	DD	FLAT:__unwindfunclet$?QSCN_SELCHANGED@ActionReceiver@@AAEX_N@Z$1
xdata$x	ENDS
;	COMDAT xdata$x
xdata$x	SEGMENT
__ehfuncinfo$?slotGetCallbackData@ActionReceiver@@AAEXUCallbackInfo@LimeReport@@AAVQVariant@@@Z DD 019930522H
	DD	05H
	DD	FLAT:__unwindtable$?slotGetCallbackData@ActionReceiver@@AAEXUCallbackInfo@LimeReport@@AAVQVariant@@@Z
	DD	2 DUP(00H)
	DD	2 DUP(00H)
	DD	00H
	DD	01H
__unwindtable$?slotGetCallbackData@ActionReceiver@@AAEXUCallbackInfo@LimeReport@@AAVQVariant@@@Z DD 0ffffffffH
	DD	FLAT:__unwindfunclet$?slotGetCallbackData@ActionReceiver@@AAEXUCallbackInfo@LimeReport@@AAVQVariant@@@Z$0
	DD	00H
	DD	FLAT:__unwindfunclet$?slotGetCallbackData@ActionReceiver@@AAEXUCallbackInfo@LimeReport@@AAVQVariant@@@Z$1
	DD	01H
	DD	FLAT:__unwindfunclet$?slotGetCallbackData@ActionReceiver@@AAEXUCallbackInfo@LimeReport@@AAVQVariant@@@Z$2
	DD	02H
	DD	FLAT:__unwindfunclet$?slotGetCallbackData@ActionReceiver@@AAEXUCallbackInfo@LimeReport@@AAVQVariant@@@Z$4
	DD	00H
	DD	FLAT:__unwindfunclet$?slotGetCallbackData@ActionReceiver@@AAEXUCallbackInfo@LimeReport@@AAVQVariant@@@Z$13
xdata$x	ENDS
;	COMDAT xdata$x
xdata$x	SEGMENT
__ehfuncinfo$?slotChangePos@ActionReceiver@@AAEXABW4ChangePosType@CallbackInfo@LimeReport@@AA_N@Z DD 019930522H
	DD	02H
	DD	FLAT:__unwindtable$?slotChangePos@ActionReceiver@@AAEXABW4ChangePosType@CallbackInfo@LimeReport@@AA_N@Z
	DD	2 DUP(00H)
	DD	2 DUP(00H)
	DD	00H
	DD	01H
__unwindtable$?slotChangePos@ActionReceiver@@AAEXABW4ChangePosType@CallbackInfo@LimeReport@@AA_N@Z DD 0ffffffffH
	DD	FLAT:__unwindfunclet$?slotChangePos@ActionReceiver@@AAEXABW4ChangePosType@CallbackInfo@LimeReport@@AA_N@Z$0
	DD	0ffffffffH
	DD	FLAT:__unwindfunclet$?slotChangePos@ActionReceiver@@AAEXABW4ChangePosType@CallbackInfo@LimeReport@@AA_N@Z$1
xdata$x	ENDS
;	COMDAT xdata$x
xdata$x	SEGMENT
__ehfuncinfo$?SCN_AUTOCCANCELLED@ActionReceiver@@AAEXXZ DD 019930522H
	DD	02H
	DD	FLAT:__unwindtable$?SCN_AUTOCCANCELLED@ActionReceiver@@AAEXXZ
	DD	2 DUP(00H)
	DD	2 DUP(00H)
	DD	00H
	DD	01H
__unwindtable$?SCN_AUTOCCANCELLED@ActionReceiver@@AAEXXZ DD 0ffffffffH
	DD	FLAT:__unwindfunclet$?SCN_AUTOCCANCELLED@ActionReceiver@@AAEXXZ$0
	DD	0ffffffffH
	DD	FLAT:__unwindfunclet$?SCN_AUTOCCANCELLED@ActionReceiver@@AAEXXZ$1
xdata$x	ENDS
;	COMDAT xdata$x
xdata$x	SEGMENT
__ehfuncinfo$?SCN_AUTOCCHARDELETED@ActionReceiver@@AAEXXZ DD 019930522H
	DD	02H
	DD	FLAT:__unwindtable$?SCN_AUTOCCHARDELETED@ActionReceiver@@AAEXXZ
	DD	2 DUP(00H)
	DD	2 DUP(00H)
	DD	00H
	DD	01H
__unwindtable$?SCN_AUTOCCHARDELETED@ActionReceiver@@AAEXXZ DD 0ffffffffH
	DD	FLAT:__unwindfunclet$?SCN_AUTOCCHARDELETED@ActionReceiver@@AAEXXZ$0
	DD	0ffffffffH
	DD	FLAT:__unwindfunclet$?SCN_AUTOCCHARDELETED@ActionReceiver@@AAEXXZ$1
xdata$x	ENDS
;	COMDAT xdata$x
xdata$x	SEGMENT
__ehfuncinfo$?SCN_AUTOCSELECTION@ActionReceiver@@AAEXPBDH@Z DD 019930522H
	DD	02H
	DD	FLAT:__unwindtable$?SCN_AUTOCSELECTION@ActionReceiver@@AAEXPBDH@Z
	DD	2 DUP(00H)
	DD	2 DUP(00H)
	DD	00H
	DD	01H
__unwindtable$?SCN_AUTOCSELECTION@ActionReceiver@@AAEXPBDH@Z DD 0ffffffffH
	DD	FLAT:__unwindfunclet$?SCN_AUTOCSELECTION@ActionReceiver@@AAEXPBDH@Z$0
	DD	0ffffffffH
	DD	FLAT:__unwindfunclet$?SCN_AUTOCSELECTION@ActionReceiver@@AAEXPBDH@Z$1
xdata$x	ENDS
;	COMDAT xdata$x
xdata$x	SEGMENT
__ehfuncinfo$?SCEN_CHANGE@ActionReceiver@@AAEXXZ DD 019930522H
	DD	02H
	DD	FLAT:__unwindtable$?SCEN_CHANGE@ActionReceiver@@AAEXXZ
	DD	2 DUP(00H)
	DD	2 DUP(00H)
	DD	00H
	DD	01H
__unwindtable$?SCEN_CHANGE@ActionReceiver@@AAEXXZ DD 0ffffffffH
	DD	FLAT:__unwindfunclet$?SCEN_CHANGE@ActionReceiver@@AAEXXZ$0
	DD	0ffffffffH
	DD	FLAT:__unwindfunclet$?SCEN_CHANGE@ActionReceiver@@AAEXXZ$1
xdata$x	ENDS
;	COMDAT xdata$x
xdata$x	SEGMENT
__ehfuncinfo$?SCN_CALLTIPCLICK@ActionReceiver@@AAEXH@Z DD 019930522H
	DD	02H
	DD	FLAT:__unwindtable$?SCN_CALLTIPCLICK@ActionReceiver@@AAEXH@Z
	DD	2 DUP(00H)
	DD	2 DUP(00H)
	DD	00H
	DD	01H
__unwindtable$?SCN_CALLTIPCLICK@ActionReceiver@@AAEXH@Z DD 0ffffffffH
	DD	FLAT:__unwindfunclet$?SCN_CALLTIPCLICK@ActionReceiver@@AAEXH@Z$0
	DD	0ffffffffH
	DD	FLAT:__unwindfunclet$?SCN_CALLTIPCLICK@ActionReceiver@@AAEXH@Z$1
xdata$x	ENDS
;	COMDAT xdata$x
xdata$x	SEGMENT
__ehfuncinfo$?SCN_CHARADDED@ActionReceiver@@AAEXH@Z DD 019930522H
	DD	02H
	DD	FLAT:__unwindtable$?SCN_CHARADDED@ActionReceiver@@AAEXH@Z
	DD	2 DUP(00H)
	DD	2 DUP(00H)
	DD	00H
	DD	01H
__unwindtable$?SCN_CHARADDED@ActionReceiver@@AAEXH@Z DD 0ffffffffH
	DD	FLAT:__unwindfunclet$?SCN_CHARADDED@ActionReceiver@@AAEXH@Z$0
	DD	0ffffffffH
	DD	FLAT:__unwindfunclet$?SCN_CHARADDED@ActionReceiver@@AAEXH@Z$1
xdata$x	ENDS
;	COMDAT xdata$x
xdata$x	SEGMENT
__ehfuncinfo$?SCN_DOUBLECLICK@ActionReceiver@@AAEXHHH@Z DD 019930522H
	DD	02H
	DD	FLAT:__unwindtable$?SCN_DOUBLECLICK@ActionReceiver@@AAEXHHH@Z
	DD	2 DUP(00H)
	DD	2 DUP(00H)
	DD	00H
	DD	01H
__unwindtable$?SCN_DOUBLECLICK@ActionReceiver@@AAEXHHH@Z DD 0ffffffffH
	DD	FLAT:__unwindfunclet$?SCN_DOUBLECLICK@ActionReceiver@@AAEXHHH@Z$0
	DD	0ffffffffH
	DD	FLAT:__unwindfunclet$?SCN_DOUBLECLICK@ActionReceiver@@AAEXHHH@Z$1
xdata$x	ENDS
;	COMDAT xdata$x
xdata$x	SEGMENT
__ehfuncinfo$?SCN_DWELLEND@ActionReceiver@@AAEXHHH@Z DD 019930522H
	DD	02H
	DD	FLAT:__unwindtable$?SCN_DWELLEND@ActionReceiver@@AAEXHHH@Z
	DD	2 DUP(00H)
	DD	2 DUP(00H)
	DD	00H
	DD	01H
__unwindtable$?SCN_DWELLEND@ActionReceiver@@AAEXHHH@Z DD 0ffffffffH
	DD	FLAT:__unwindfunclet$?SCN_DWELLEND@ActionReceiver@@AAEXHHH@Z$0
	DD	0ffffffffH
	DD	FLAT:__unwindfunclet$?SCN_DWELLEND@ActionReceiver@@AAEXHHH@Z$1
xdata$x	ENDS
;	COMDAT xdata$x
xdata$x	SEGMENT
__ehfuncinfo$?SCN_DWELLSTART@ActionReceiver@@AAEXHHH@Z DD 019930522H
	DD	02H
	DD	FLAT:__unwindtable$?SCN_DWELLSTART@ActionReceiver@@AAEXHHH@Z
	DD	2 DUP(00H)
	DD	2 DUP(00H)
	DD	00H
	DD	01H
__unwindtable$?SCN_DWELLSTART@ActionReceiver@@AAEXHHH@Z DD 0ffffffffH
	DD	FLAT:__unwindfunclet$?SCN_DWELLSTART@ActionReceiver@@AAEXHHH@Z$0
	DD	0ffffffffH
	DD	FLAT:__unwindfunclet$?SCN_DWELLSTART@ActionReceiver@@AAEXHHH@Z$1
xdata$x	ENDS
;	COMDAT xdata$x
xdata$x	SEGMENT
__ehfuncinfo$?SCN_FOCUSIN@ActionReceiver@@AAEXXZ DD 019930522H
	DD	02H
	DD	FLAT:__unwindtable$?SCN_FOCUSIN@ActionReceiver@@AAEXXZ
	DD	2 DUP(00H)
	DD	2 DUP(00H)
	DD	00H
	DD	01H
__unwindtable$?SCN_FOCUSIN@ActionReceiver@@AAEXXZ DD 0ffffffffH
	DD	FLAT:__unwindfunclet$?SCN_FOCUSIN@ActionReceiver@@AAEXXZ$0
	DD	0ffffffffH
	DD	FLAT:__unwindfunclet$?SCN_FOCUSIN@ActionReceiver@@AAEXXZ$1
xdata$x	ENDS
;	COMDAT xdata$x
xdata$x	SEGMENT
__ehfuncinfo$?SCN_FOCUSOUT@ActionReceiver@@AAEXXZ DD 019930522H
	DD	02H
	DD	FLAT:__unwindtable$?SCN_FOCUSOUT@ActionReceiver@@AAEXXZ
	DD	2 DUP(00H)
	DD	2 DUP(00H)
	DD	00H
	DD	01H
__unwindtable$?SCN_FOCUSOUT@ActionReceiver@@AAEXXZ DD 0ffffffffH
	DD	FLAT:__unwindfunclet$?SCN_FOCUSOUT@ActionReceiver@@AAEXXZ$0
	DD	0ffffffffH
	DD	FLAT:__unwindfunclet$?SCN_FOCUSOUT@ActionReceiver@@AAEXXZ$1
xdata$x	ENDS
;	COMDAT xdata$x
xdata$x	SEGMENT
__ehfuncinfo$?SCN_HOTSPOTCLICK@ActionReceiver@@AAEXHH@Z DD 019930522H
	DD	02H
	DD	FLAT:__unwindtable$?SCN_HOTSPOTCLICK@ActionReceiver@@AAEXHH@Z
	DD	2 DUP(00H)
	DD	2 DUP(00H)
	DD	00H
	DD	01H
__unwindtable$?SCN_HOTSPOTCLICK@ActionReceiver@@AAEXHH@Z DD 0ffffffffH
	DD	FLAT:__unwindfunclet$?SCN_HOTSPOTCLICK@ActionReceiver@@AAEXHH@Z$0
	DD	0ffffffffH
	DD	FLAT:__unwindfunclet$?SCN_HOTSPOTCLICK@ActionReceiver@@AAEXHH@Z$1
xdata$x	ENDS
;	COMDAT xdata$x
xdata$x	SEGMENT
__ehfuncinfo$?SCN_HOTSPOTDOUBLECLICK@ActionReceiver@@AAEXHH@Z DD 019930522H
	DD	02H
	DD	FLAT:__unwindtable$?SCN_HOTSPOTDOUBLECLICK@ActionReceiver@@AAEXHH@Z
	DD	2 DUP(00H)
	DD	2 DUP(00H)
	DD	00H
	DD	01H
__unwindtable$?SCN_HOTSPOTDOUBLECLICK@ActionReceiver@@AAEXHH@Z DD 0ffffffffH
	DD	FLAT:__unwindfunclet$?SCN_HOTSPOTDOUBLECLICK@ActionReceiver@@AAEXHH@Z$0
	DD	0ffffffffH
	DD	FLAT:__unwindfunclet$?SCN_HOTSPOTDOUBLECLICK@ActionReceiver@@AAEXHH@Z$1
xdata$x	ENDS
;	COMDAT xdata$x
xdata$x	SEGMENT
__ehfuncinfo$?SCN_HOTSPOTRELEASECLICK@ActionReceiver@@AAEXHH@Z DD 019930522H
	DD	02H
	DD	FLAT:__unwindtable$?SCN_HOTSPOTRELEASECLICK@ActionReceiver@@AAEXHH@Z
	DD	2 DUP(00H)
	DD	2 DUP(00H)
	DD	00H
	DD	01H
__unwindtable$?SCN_HOTSPOTRELEASECLICK@ActionReceiver@@AAEXHH@Z DD 0ffffffffH
	DD	FLAT:__unwindfunclet$?SCN_HOTSPOTRELEASECLICK@ActionReceiver@@AAEXHH@Z$0
	DD	0ffffffffH
	DD	FLAT:__unwindfunclet$?SCN_HOTSPOTRELEASECLICK@ActionReceiver@@AAEXHH@Z$1
xdata$x	ENDS
;	COMDAT xdata$x
xdata$x	SEGMENT
__ehfuncinfo$?SCN_INDICATORCLICK@ActionReceiver@@AAEXHH@Z DD 019930522H
	DD	02H
	DD	FLAT:__unwindtable$?SCN_INDICATORCLICK@ActionReceiver@@AAEXHH@Z
	DD	2 DUP(00H)
	DD	2 DUP(00H)
	DD	00H
	DD	01H
__unwindtable$?SCN_INDICATORCLICK@ActionReceiver@@AAEXHH@Z DD 0ffffffffH
	DD	FLAT:__unwindfunclet$?SCN_INDICATORCLICK@ActionReceiver@@AAEXHH@Z$0
	DD	0ffffffffH
	DD	FLAT:__unwindfunclet$?SCN_INDICATORCLICK@ActionReceiver@@AAEXHH@Z$1
xdata$x	ENDS
;	COMDAT xdata$x
xdata$x	SEGMENT
__ehfuncinfo$?SCN_INDICATORRELEASE@ActionReceiver@@AAEXHH@Z DD 019930522H
	DD	02H
	DD	FLAT:__unwindtable$?SCN_INDICATORRELEASE@ActionReceiver@@AAEXHH@Z
	DD	2 DUP(00H)
	DD	2 DUP(00H)
	DD	00H
	DD	01H
__unwindtable$?SCN_INDICATORRELEASE@ActionReceiver@@AAEXHH@Z DD 0ffffffffH
	DD	FLAT:__unwindfunclet$?SCN_INDICATORRELEASE@ActionReceiver@@AAEXHH@Z$0
	DD	0ffffffffH
	DD	FLAT:__unwindfunclet$?SCN_INDICATORRELEASE@ActionReceiver@@AAEXHH@Z$1
xdata$x	ENDS
;	COMDAT xdata$x
xdata$x	SEGMENT
__ehfuncinfo$?SCN_MACRORECORD@ActionReceiver@@AAEXIKPAX@Z DD 019930522H
	DD	02H
	DD	FLAT:__unwindtable$?SCN_MACRORECORD@ActionReceiver@@AAEXIKPAX@Z
	DD	2 DUP(00H)
	DD	2 DUP(00H)
	DD	00H
	DD	01H
__unwindtable$?SCN_MACRORECORD@ActionReceiver@@AAEXIKPAX@Z DD 0ffffffffH
	DD	FLAT:__unwindfunclet$?SCN_MACRORECORD@ActionReceiver@@AAEXIKPAX@Z$0
	DD	0ffffffffH
	DD	FLAT:__unwindfunclet$?SCN_MACRORECORD@ActionReceiver@@AAEXIKPAX@Z$1
xdata$x	ENDS
;	COMDAT xdata$x
xdata$x	SEGMENT
__ehfuncinfo$?SCN_MARGINCLICK@ActionReceiver@@AAEXHHH@Z DD 019930522H
	DD	02H
	DD	FLAT:__unwindtable$?SCN_MARGINCLICK@ActionReceiver@@AAEXHHH@Z
	DD	2 DUP(00H)
	DD	2 DUP(00H)
	DD	00H
	DD	01H
__unwindtable$?SCN_MARGINCLICK@ActionReceiver@@AAEXHHH@Z DD 0ffffffffH
	DD	FLAT:__unwindfunclet$?SCN_MARGINCLICK@ActionReceiver@@AAEXHHH@Z$0
	DD	0ffffffffH
	DD	FLAT:__unwindfunclet$?SCN_MARGINCLICK@ActionReceiver@@AAEXHHH@Z$1
xdata$x	ENDS
;	COMDAT xdata$x
xdata$x	SEGMENT
__ehfuncinfo$?SCN_MARGINRIGHTCLICK@ActionReceiver@@AAEXHHH@Z DD 019930522H
	DD	02H
	DD	FLAT:__unwindtable$?SCN_MARGINRIGHTCLICK@ActionReceiver@@AAEXHHH@Z
	DD	2 DUP(00H)
	DD	2 DUP(00H)
	DD	00H
	DD	01H
__unwindtable$?SCN_MARGINRIGHTCLICK@ActionReceiver@@AAEXHHH@Z DD 0ffffffffH
	DD	FLAT:__unwindfunclet$?SCN_MARGINRIGHTCLICK@ActionReceiver@@AAEXHHH@Z$0
	DD	0ffffffffH
	DD	FLAT:__unwindfunclet$?SCN_MARGINRIGHTCLICK@ActionReceiver@@AAEXHHH@Z$1
xdata$x	ENDS
;	COMDAT xdata$x
xdata$x	SEGMENT
__ehfuncinfo$?SCN_MODIFIED@ActionReceiver@@AAEXHHPBDHHHHHHH@Z DD 019930522H
	DD	02H
	DD	FLAT:__unwindtable$?SCN_MODIFIED@ActionReceiver@@AAEXHHPBDHHHHHHH@Z
	DD	2 DUP(00H)
	DD	2 DUP(00H)
	DD	00H
	DD	01H
__unwindtable$?SCN_MODIFIED@ActionReceiver@@AAEXHHPBDHHHHHHH@Z DD 0ffffffffH
	DD	FLAT:__unwindfunclet$?SCN_MODIFIED@ActionReceiver@@AAEXHHPBDHHHHHHH@Z$0
	DD	0ffffffffH
	DD	FLAT:__unwindfunclet$?SCN_MODIFIED@ActionReceiver@@AAEXHHPBDHHHHHHH@Z$1
xdata$x	ENDS
;	COMDAT xdata$x
xdata$x	SEGMENT
__ehfuncinfo$?SCN_MODIFYATTEMPTRO@ActionReceiver@@AAEXXZ DD 019930522H
	DD	02H
	DD	FLAT:__unwindtable$?SCN_MODIFYATTEMPTRO@ActionReceiver@@AAEXXZ
	DD	2 DUP(00H)
	DD	2 DUP(00H)
	DD	00H
	DD	01H
__unwindtable$?SCN_MODIFYATTEMPTRO@ActionReceiver@@AAEXXZ DD 0ffffffffH
	DD	FLAT:__unwindfunclet$?SCN_MODIFYATTEMPTRO@ActionReceiver@@AAEXXZ$0
	DD	0ffffffffH
	DD	FLAT:__unwindfunclet$?SCN_MODIFYATTEMPTRO@ActionReceiver@@AAEXXZ$1
xdata$x	ENDS
;	COMDAT xdata$x
xdata$x	SEGMENT
__ehfuncinfo$?SCN_NEEDSHOWN@ActionReceiver@@AAEXHH@Z DD 019930522H
	DD	02H
	DD	FLAT:__unwindtable$?SCN_NEEDSHOWN@ActionReceiver@@AAEXHH@Z
	DD	2 DUP(00H)
	DD	2 DUP(00H)
	DD	00H
	DD	01H
__unwindtable$?SCN_NEEDSHOWN@ActionReceiver@@AAEXHH@Z DD 0ffffffffH
	DD	FLAT:__unwindfunclet$?SCN_NEEDSHOWN@ActionReceiver@@AAEXHH@Z$0
	DD	0ffffffffH
	DD	FLAT:__unwindfunclet$?SCN_NEEDSHOWN@ActionReceiver@@AAEXHH@Z$1
xdata$x	ENDS
;	COMDAT xdata$x
xdata$x	SEGMENT
__ehfuncinfo$?SCN_PAINTED@ActionReceiver@@AAEXXZ DD 019930522H
	DD	02H
	DD	FLAT:__unwindtable$?SCN_PAINTED@ActionReceiver@@AAEXXZ
	DD	2 DUP(00H)
	DD	2 DUP(00H)
	DD	00H
	DD	01H
__unwindtable$?SCN_PAINTED@ActionReceiver@@AAEXXZ DD 0ffffffffH
	DD	FLAT:__unwindfunclet$?SCN_PAINTED@ActionReceiver@@AAEXXZ$0
	DD	0ffffffffH
	DD	FLAT:__unwindfunclet$?SCN_PAINTED@ActionReceiver@@AAEXXZ$1
xdata$x	ENDS
;	COMDAT xdata$x
xdata$x	SEGMENT
__ehfuncinfo$?SCN_SAVEPOINTLEFT@ActionReceiver@@AAEXXZ DD 019930522H
	DD	02H
	DD	FLAT:__unwindtable$?SCN_SAVEPOINTLEFT@ActionReceiver@@AAEXXZ
	DD	2 DUP(00H)
	DD	2 DUP(00H)
	DD	00H
	DD	01H
__unwindtable$?SCN_SAVEPOINTLEFT@ActionReceiver@@AAEXXZ DD 0ffffffffH
	DD	FLAT:__unwindfunclet$?SCN_SAVEPOINTLEFT@ActionReceiver@@AAEXXZ$0
	DD	0ffffffffH
	DD	FLAT:__unwindfunclet$?SCN_SAVEPOINTLEFT@ActionReceiver@@AAEXXZ$1
xdata$x	ENDS
;	COMDAT xdata$x
xdata$x	SEGMENT
__ehfuncinfo$?SCN_SAVEPOINTREACHED@ActionReceiver@@AAEXXZ DD 019930522H
	DD	02H
	DD	FLAT:__unwindtable$?SCN_SAVEPOINTREACHED@ActionReceiver@@AAEXXZ
	DD	2 DUP(00H)
	DD	2 DUP(00H)
	DD	00H
	DD	01H
__unwindtable$?SCN_SAVEPOINTREACHED@ActionReceiver@@AAEXXZ DD 0ffffffffH
	DD	FLAT:__unwindfunclet$?SCN_SAVEPOINTREACHED@ActionReceiver@@AAEXXZ$0
	DD	0ffffffffH
	DD	FLAT:__unwindfunclet$?SCN_SAVEPOINTREACHED@ActionReceiver@@AAEXXZ$1
xdata$x	ENDS
;	COMDAT xdata$x
xdata$x	SEGMENT
__ehfuncinfo$?SCN_STYLENEEDED@ActionReceiver@@AAEXH@Z DD 019930522H
	DD	02H
	DD	FLAT:__unwindtable$?SCN_STYLENEEDED@ActionReceiver@@AAEXH@Z
	DD	2 DUP(00H)
	DD	2 DUP(00H)
	DD	00H
	DD	01H
__unwindtable$?SCN_STYLENEEDED@ActionReceiver@@AAEXH@Z DD 0ffffffffH
	DD	FLAT:__unwindfunclet$?SCN_STYLENEEDED@ActionReceiver@@AAEXH@Z$0
	DD	0ffffffffH
	DD	FLAT:__unwindfunclet$?SCN_STYLENEEDED@ActionReceiver@@AAEXH@Z$1
xdata$x	ENDS
;	COMDAT xdata$x
xdata$x	SEGMENT
__ehfuncinfo$?SCN_UPDATEUI@ActionReceiver@@AAEXH@Z DD 019930522H
	DD	02H
	DD	FLAT:__unwindtable$?SCN_UPDATEUI@ActionReceiver@@AAEXH@Z
	DD	2 DUP(00H)
	DD	2 DUP(00H)
	DD	00H
	DD	01H
__unwindtable$?SCN_UPDATEUI@ActionReceiver@@AAEXH@Z DD 0ffffffffH
	DD	FLAT:__unwindfunclet$?SCN_UPDATEUI@ActionReceiver@@AAEXH@Z$0
	DD	0ffffffffH
	DD	FLAT:__unwindfunclet$?SCN_UPDATEUI@ActionReceiver@@AAEXH@Z$1
xdata$x	ENDS
;	COMDAT xdata$x
xdata$x	SEGMENT
__ehfuncinfo$?SCN_USERLISTSELECTION@ActionReceiver@@AAEXPBDH@Z DD 019930522H
	DD	02H
	DD	FLAT:__unwindtable$?SCN_USERLISTSELECTION@ActionReceiver@@AAEXPBDH@Z
	DD	2 DUP(00H)
	DD	2 DUP(00H)
	DD	00H
	DD	01H
__unwindtable$?SCN_USERLISTSELECTION@ActionReceiver@@AAEXPBDH@Z DD 0ffffffffH
	DD	FLAT:__unwindfunclet$?SCN_USERLISTSELECTION@ActionReceiver@@AAEXPBDH@Z$0
	DD	0ffffffffH
	DD	FLAT:__unwindfunclet$?SCN_USERLISTSELECTION@ActionReceiver@@AAEXPBDH@Z$1
xdata$x	ENDS
;	COMDAT xdata$x
xdata$x	SEGMENT
__ehfuncinfo$?SCN_ZOOM@ActionReceiver@@AAEXXZ DD 019930522H
	DD	02H
	DD	FLAT:__unwindtable$?SCN_ZOOM@ActionReceiver@@AAEXXZ
	DD	2 DUP(00H)
	DD	2 DUP(00H)
	DD	00H
	DD	01H
__unwindtable$?SCN_ZOOM@ActionReceiver@@AAEXXZ DD 0ffffffffH
	DD	FLAT:__unwindfunclet$?SCN_ZOOM@ActionReceiver@@AAEXXZ$0
	DD	0ffffffffH
	DD	FLAT:__unwindfunclet$?SCN_ZOOM@ActionReceiver@@AAEXXZ$1
xdata$x	ENDS
;	COMDAT xdata$x
xdata$x	SEGMENT
__ehfuncinfo$?tetextChanged@ActionReceiver@@AAEXXZ DD 019930522H
	DD	02H
	DD	FLAT:__unwindtable$?tetextChanged@ActionReceiver@@AAEXXZ
	DD	2 DUP(00H)
	DD	2 DUP(00H)
	DD	00H
	DD	01H
__unwindtable$?tetextChanged@ActionReceiver@@AAEXXZ DD 0ffffffffH
	DD	FLAT:__unwindfunclet$?tetextChanged@ActionReceiver@@AAEXXZ$0
	DD	0ffffffffH
	DD	FLAT:__unwindfunclet$?tetextChanged@ActionReceiver@@AAEXXZ$1
xdata$x	ENDS
;	COMDAT xdata$x
xdata$x	SEGMENT
__ehfuncinfo$?tecursorPositionChanged@ActionReceiver@@AAEXXZ DD 019930522H
	DD	02H
	DD	FLAT:__unwindtable$?tecursorPositionChanged@ActionReceiver@@AAEXXZ
	DD	2 DUP(00H)
	DD	2 DUP(00H)
	DD	00H
	DD	01H
__unwindtable$?tecursorPositionChanged@ActionReceiver@@AAEXXZ DD 0ffffffffH
	DD	FLAT:__unwindfunclet$?tecursorPositionChanged@ActionReceiver@@AAEXXZ$0
	DD	0ffffffffH
	DD	FLAT:__unwindfunclet$?tecursorPositionChanged@ActionReceiver@@AAEXXZ$1
xdata$x	ENDS
;	COMDAT xdata$x
xdata$x	SEGMENT
__ehfuncinfo$?teselectionChanged@ActionReceiver@@AAEXXZ DD 019930522H
	DD	02H
	DD	FLAT:__unwindtable$?teselectionChanged@ActionReceiver@@AAEXXZ
	DD	2 DUP(00H)
	DD	2 DUP(00H)
	DD	00H
	DD	01H
__unwindtable$?teselectionChanged@ActionReceiver@@AAEXXZ DD 0ffffffffH
	DD	FLAT:__unwindfunclet$?teselectionChanged@ActionReceiver@@AAEXXZ$0
	DD	0ffffffffH
	DD	FLAT:__unwindfunclet$?teselectionChanged@ActionReceiver@@AAEXXZ$1
xdata$x	ENDS
;	COMDAT xdata$x
xdata$x	SEGMENT
__ehfuncinfo$?etextChanged@ActionReceiver@@AAEXABVQString@@@Z DD 019930522H
	DD	03H
	DD	FLAT:__unwindtable$?etextChanged@ActionReceiver@@AAEXABVQString@@@Z
	DD	2 DUP(00H)
	DD	2 DUP(00H)
	DD	00H
	DD	01H
__unwindtable$?etextChanged@ActionReceiver@@AAEXABVQString@@@Z DD 0ffffffffH
	DD	FLAT:__unwindfunclet$?etextChanged@ActionReceiver@@AAEXABVQString@@@Z$0
	DD	00H
	DD	FLAT:__unwindfunclet$?etextChanged@ActionReceiver@@AAEXABVQString@@@Z$1
	DD	0ffffffffH
	DD	FLAT:__unwindfunclet$?etextChanged@ActionReceiver@@AAEXABVQString@@@Z$8
xdata$x	ENDS
;	COMDAT xdata$x
xdata$x	SEGMENT
__ehfuncinfo$?etextEdited@ActionReceiver@@AAEXABVQString@@@Z DD 019930522H
	DD	03H
	DD	FLAT:__unwindtable$?etextEdited@ActionReceiver@@AAEXABVQString@@@Z
	DD	2 DUP(00H)
	DD	2 DUP(00H)
	DD	00H
	DD	01H
__unwindtable$?etextEdited@ActionReceiver@@AAEXABVQString@@@Z DD 0ffffffffH
	DD	FLAT:__unwindfunclet$?etextEdited@ActionReceiver@@AAEXABVQString@@@Z$0
	DD	00H
	DD	FLAT:__unwindfunclet$?etextEdited@ActionReceiver@@AAEXABVQString@@@Z$1
	DD	0ffffffffH
	DD	FLAT:__unwindfunclet$?etextEdited@ActionReceiver@@AAEXABVQString@@@Z$8
xdata$x	ENDS
;	COMDAT xdata$x
xdata$x	SEGMENT
__ehfuncinfo$?ecursorPositionChanged@ActionReceiver@@AAEXHH@Z DD 019930522H
	DD	02H
	DD	FLAT:__unwindtable$?ecursorPositionChanged@ActionReceiver@@AAEXHH@Z
	DD	2 DUP(00H)
	DD	2 DUP(00H)
	DD	00H
	DD	01H
__unwindtable$?ecursorPositionChanged@ActionReceiver@@AAEXHH@Z DD 0ffffffffH
	DD	FLAT:__unwindfunclet$?ecursorPositionChanged@ActionReceiver@@AAEXHH@Z$0
	DD	0ffffffffH
	DD	FLAT:__unwindfunclet$?ecursorPositionChanged@ActionReceiver@@AAEXHH@Z$1
xdata$x	ENDS
;	COMDAT xdata$x
xdata$x	SEGMENT
__ehfuncinfo$?ereturnPressed@ActionReceiver@@AAEXXZ DD 019930522H
	DD	02H
	DD	FLAT:__unwindtable$?ereturnPressed@ActionReceiver@@AAEXXZ
	DD	2 DUP(00H)
	DD	2 DUP(00H)
	DD	00H
	DD	01H
__unwindtable$?ereturnPressed@ActionReceiver@@AAEXXZ DD 0ffffffffH
	DD	FLAT:__unwindfunclet$?ereturnPressed@ActionReceiver@@AAEXXZ$0
	DD	0ffffffffH
	DD	FLAT:__unwindfunclet$?ereturnPressed@ActionReceiver@@AAEXXZ$1
xdata$x	ENDS
;	COMDAT xdata$x
xdata$x	SEGMENT
__ehfuncinfo$?eeditingFinished@ActionReceiver@@AAEXXZ DD 019930522H
	DD	02H
	DD	FLAT:__unwindtable$?eeditingFinished@ActionReceiver@@AAEXXZ
	DD	2 DUP(00H)
	DD	2 DUP(00H)
	DD	00H
	DD	01H
__unwindtable$?eeditingFinished@ActionReceiver@@AAEXXZ DD 0ffffffffH
	DD	FLAT:__unwindfunclet$?eeditingFinished@ActionReceiver@@AAEXXZ$0
	DD	0ffffffffH
	DD	FLAT:__unwindfunclet$?eeditingFinished@ActionReceiver@@AAEXXZ$1
xdata$x	ENDS
;	COMDAT xdata$x
xdata$x	SEGMENT
__ehfuncinfo$?oncellPress@ActionReceiver@@AAEXHH@Z DD 019930522H
	DD	02H
	DD	FLAT:__unwindtable$?oncellPress@ActionReceiver@@AAEXHH@Z
	DD	2 DUP(00H)
	DD	2 DUP(00H)
	DD	00H
	DD	01H
__unwindtable$?oncellPress@ActionReceiver@@AAEXHH@Z DD 0ffffffffH
	DD	FLAT:__unwindfunclet$?oncellPress@ActionReceiver@@AAEXHH@Z$0
	DD	0ffffffffH
	DD	FLAT:__unwindfunclet$?oncellPress@ActionReceiver@@AAEXHH@Z$1
xdata$x	ENDS
;	COMDAT xdata$x
xdata$x	SEGMENT
__ehfuncinfo$?onPreviewRequested@ActionReceiver@@AAEXPAVQPrinter@@@Z DD 019930522H
	DD	02H
	DD	FLAT:__unwindtable$?onPreviewRequested@ActionReceiver@@AAEXPAVQPrinter@@@Z
	DD	2 DUP(00H)
	DD	2 DUP(00H)
	DD	00H
	DD	01H
__unwindtable$?onPreviewRequested@ActionReceiver@@AAEXPAVQPrinter@@@Z DD 0ffffffffH
	DD	FLAT:__unwindfunclet$?onPreviewRequested@ActionReceiver@@AAEXPAVQPrinter@@@Z$0
	DD	0ffffffffH
	DD	FLAT:__unwindfunclet$?onPreviewRequested@ActionReceiver@@AAEXPAVQPrinter@@@Z$1
xdata$x	ENDS
;	COMDAT xdata$x
xdata$x	SEGMENT
__ehfuncinfo$?oncellItemPress@ActionReceiver@@AAEXPAVQTableWidgetItem@@@Z DD 019930522H
	DD	02H
	DD	FLAT:__unwindtable$?oncellItemPress@ActionReceiver@@AAEXPAVQTableWidgetItem@@@Z
	DD	2 DUP(00H)
	DD	2 DUP(00H)
	DD	00H
	DD	01H
__unwindtable$?oncellItemPress@ActionReceiver@@AAEXPAVQTableWidgetItem@@@Z DD 0ffffffffH
	DD	FLAT:__unwindfunclet$?oncellItemPress@ActionReceiver@@AAEXPAVQTableWidgetItem@@@Z$0
	DD	0ffffffffH
	DD	FLAT:__unwindfunclet$?oncellItemPress@ActionReceiver@@AAEXPAVQTableWidgetItem@@@Z$1
xdata$x	ENDS
;	COMDAT xdata$x
xdata$x	SEGMENT
__ehfuncinfo$?oncellClick@ActionReceiver@@AAEXHH@Z DD 019930522H
	DD	02H
	DD	FLAT:__unwindtable$?oncellClick@ActionReceiver@@AAEXHH@Z
	DD	2 DUP(00H)
	DD	2 DUP(00H)
	DD	00H
	DD	01H
__unwindtable$?oncellClick@ActionReceiver@@AAEXHH@Z DD 0ffffffffH
	DD	FLAT:__unwindfunclet$?oncellClick@ActionReceiver@@AAEXHH@Z$0
	DD	0ffffffffH
	DD	FLAT:__unwindfunclet$?oncellClick@ActionReceiver@@AAEXHH@Z$1
xdata$x	ENDS
;	COMDAT xdata$x
xdata$x	SEGMENT
__ehfuncinfo$?oncellItemClick@ActionReceiver@@AAEXPAVQTableWidgetItem@@@Z DD 019930522H
	DD	02H
	DD	FLAT:__unwindtable$?oncellItemClick@ActionReceiver@@AAEXPAVQTableWidgetItem@@@Z
	DD	2 DUP(00H)
	DD	2 DUP(00H)
	DD	00H
	DD	01H
__unwindtable$?oncellItemClick@ActionReceiver@@AAEXPAVQTableWidgetItem@@@Z DD 0ffffffffH
	DD	FLAT:__unwindfunclet$?oncellItemClick@ActionReceiver@@AAEXPAVQTableWidgetItem@@@Z$0
	DD	0ffffffffH
	DD	FLAT:__unwindfunclet$?oncellItemClick@ActionReceiver@@AAEXPAVQTableWidgetItem@@@Z$1
xdata$x	ENDS
;	COMDAT xdata$x
xdata$x	SEGMENT
__ehfuncinfo$?oncellDBClick@ActionReceiver@@AAEXHH@Z DD 019930522H
	DD	02H
	DD	FLAT:__unwindtable$?oncellDBClick@ActionReceiver@@AAEXHH@Z
	DD	2 DUP(00H)
	DD	2 DUP(00H)
	DD	00H
	DD	01H
__unwindtable$?oncellDBClick@ActionReceiver@@AAEXHH@Z DD 0ffffffffH
	DD	FLAT:__unwindfunclet$?oncellDBClick@ActionReceiver@@AAEXHH@Z$0
	DD	0ffffffffH
	DD	FLAT:__unwindfunclet$?oncellDBClick@ActionReceiver@@AAEXHH@Z$1
xdata$x	ENDS
;	COMDAT xdata$x
xdata$x	SEGMENT
__ehfuncinfo$?oncellItemDBClick@ActionReceiver@@AAEXPAVQTableWidgetItem@@@Z DD 019930522H
	DD	02H
	DD	FLAT:__unwindtable$?oncellItemDBClick@ActionReceiver@@AAEXPAVQTableWidgetItem@@@Z
	DD	2 DUP(00H)
	DD	2 DUP(00H)
	DD	00H
	DD	01H
__unwindtable$?oncellItemDBClick@ActionReceiver@@AAEXPAVQTableWidgetItem@@@Z DD 0ffffffffH
	DD	FLAT:__unwindfunclet$?oncellItemDBClick@ActionReceiver@@AAEXPAVQTableWidgetItem@@@Z$0
	DD	0ffffffffH
	DD	FLAT:__unwindfunclet$?oncellItemDBClick@ActionReceiver@@AAEXPAVQTableWidgetItem@@@Z$1
xdata$x	ENDS
;	COMDAT xdata$x
xdata$x	SEGMENT
__ehfuncinfo$?oncellEnter@ActionReceiver@@AAEXHH@Z DD 019930522H
	DD	02H
	DD	FLAT:__unwindtable$?oncellEnter@ActionReceiver@@AAEXHH@Z
	DD	2 DUP(00H)
	DD	2 DUP(00H)
	DD	00H
	DD	01H
__unwindtable$?oncellEnter@ActionReceiver@@AAEXHH@Z DD 0ffffffffH
	DD	FLAT:__unwindfunclet$?oncellEnter@ActionReceiver@@AAEXHH@Z$0
	DD	0ffffffffH
	DD	FLAT:__unwindfunclet$?oncellEnter@ActionReceiver@@AAEXHH@Z$1
xdata$x	ENDS
;	COMDAT xdata$x
xdata$x	SEGMENT
__ehfuncinfo$?oncellItemEnter@ActionReceiver@@AAEXPAVQTableWidgetItem@@@Z DD 019930522H
	DD	02H
	DD	FLAT:__unwindtable$?oncellItemEnter@ActionReceiver@@AAEXPAVQTableWidgetItem@@@Z
	DD	2 DUP(00H)
	DD	2 DUP(00H)
	DD	00H
	DD	01H
__unwindtable$?oncellItemEnter@ActionReceiver@@AAEXPAVQTableWidgetItem@@@Z DD 0ffffffffH
	DD	FLAT:__unwindfunclet$?oncellItemEnter@ActionReceiver@@AAEXPAVQTableWidgetItem@@@Z$0
	DD	0ffffffffH
	DD	FLAT:__unwindfunclet$?oncellItemEnter@ActionReceiver@@AAEXPAVQTableWidgetItem@@@Z$1
xdata$x	ENDS
;	COMDAT xdata$x
xdata$x	SEGMENT
__ehfuncinfo$?oncellActive@ActionReceiver@@AAEXHH@Z DD 019930522H
	DD	02H
	DD	FLAT:__unwindtable$?oncellActive@ActionReceiver@@AAEXHH@Z
	DD	2 DUP(00H)
	DD	2 DUP(00H)
	DD	00H
	DD	01H
__unwindtable$?oncellActive@ActionReceiver@@AAEXHH@Z DD 0ffffffffH
	DD	FLAT:__unwindfunclet$?oncellActive@ActionReceiver@@AAEXHH@Z$0
	DD	0ffffffffH
	DD	FLAT:__unwindfunclet$?oncellActive@ActionReceiver@@AAEXHH@Z$1
xdata$x	ENDS
;	COMDAT xdata$x
xdata$x	SEGMENT
__ehfuncinfo$?oncellItemActive@ActionReceiver@@AAEXPAVQTableWidgetItem@@@Z DD 019930522H
	DD	02H
	DD	FLAT:__unwindtable$?oncellItemActive@ActionReceiver@@AAEXPAVQTableWidgetItem@@@Z
	DD	2 DUP(00H)
	DD	2 DUP(00H)
	DD	00H
	DD	01H
__unwindtable$?oncellItemActive@ActionReceiver@@AAEXPAVQTableWidgetItem@@@Z DD 0ffffffffH
	DD	FLAT:__unwindfunclet$?oncellItemActive@ActionReceiver@@AAEXPAVQTableWidgetItem@@@Z$0
	DD	0ffffffffH
	DD	FLAT:__unwindfunclet$?oncellItemActive@ActionReceiver@@AAEXPAVQTableWidgetItem@@@Z$1
xdata$x	ENDS
;	COMDAT xdata$x
xdata$x	SEGMENT
__ehfuncinfo$?oncellChanged@ActionReceiver@@AAEXHH@Z DD 019930522H
	DD	02H
	DD	FLAT:__unwindtable$?oncellChanged@ActionReceiver@@AAEXHH@Z
	DD	2 DUP(00H)
	DD	2 DUP(00H)
	DD	00H
	DD	01H
__unwindtable$?oncellChanged@ActionReceiver@@AAEXHH@Z DD 0ffffffffH
	DD	FLAT:__unwindfunclet$?oncellChanged@ActionReceiver@@AAEXHH@Z$0
	DD	0ffffffffH
	DD	FLAT:__unwindfunclet$?oncellChanged@ActionReceiver@@AAEXHH@Z$1
xdata$x	ENDS
;	COMDAT xdata$x
xdata$x	SEGMENT
__ehfuncinfo$?oncellItemChanged@ActionReceiver@@AAEXPAVQTableWidgetItem@@@Z DD 019930522H
	DD	02H
	DD	FLAT:__unwindtable$?oncellItemChanged@ActionReceiver@@AAEXPAVQTableWidgetItem@@@Z
	DD	2 DUP(00H)
	DD	2 DUP(00H)
	DD	00H
	DD	01H
__unwindtable$?oncellItemChanged@ActionReceiver@@AAEXPAVQTableWidgetItem@@@Z DD 0ffffffffH
	DD	FLAT:__unwindfunclet$?oncellItemChanged@ActionReceiver@@AAEXPAVQTableWidgetItem@@@Z$0
	DD	0ffffffffH
	DD	FLAT:__unwindfunclet$?oncellItemChanged@ActionReceiver@@AAEXPAVQTableWidgetItem@@@Z$1
xdata$x	ENDS
;	COMDAT xdata$x
xdata$x	SEGMENT
__ehfuncinfo$?eselectionChanged@ActionReceiver@@AAEXXZ DD 019930522H
	DD	02H
	DD	FLAT:__unwindtable$?eselectionChanged@ActionReceiver@@AAEXXZ
	DD	2 DUP(00H)
	DD	2 DUP(00H)
	DD	00H
	DD	01H
__unwindtable$?eselectionChanged@ActionReceiver@@AAEXXZ DD 0ffffffffH
	DD	FLAT:__unwindfunclet$?eselectionChanged@ActionReceiver@@AAEXXZ$0
	DD	0ffffffffH
	DD	FLAT:__unwindfunclet$?eselectionChanged@ActionReceiver@@AAEXXZ$1
xdata$x	ENDS
;	COMDAT xdata$x
xdata$x	SEGMENT
__ehfuncinfo$?onValueChanged@ActionReceiver@@AAEXPAVQtProperty@@H@Z DD 019930522H
	DD	02H
	DD	FLAT:__unwindtable$?onValueChanged@ActionReceiver@@AAEXPAVQtProperty@@H@Z
	DD	2 DUP(00H)
	DD	2 DUP(00H)
	DD	00H
	DD	01H
__unwindtable$?onValueChanged@ActionReceiver@@AAEXPAVQtProperty@@H@Z DD 0ffffffffH
	DD	FLAT:__unwindfunclet$?onValueChanged@ActionReceiver@@AAEXPAVQtProperty@@H@Z$0
	DD	0ffffffffH
	DD	FLAT:__unwindfunclet$?onValueChanged@ActionReceiver@@AAEXPAVQtProperty@@H@Z$1
xdata$x	ENDS
;	COMDAT xdata$x
xdata$x	SEGMENT
__ehfuncinfo$?onValueChanged@ActionReceiver@@AAEXPAVQtProperty@@ABVQVariant@@@Z DD 019930522H
	DD	04H
	DD	FLAT:__unwindtable$?onValueChanged@ActionReceiver@@AAEXPAVQtProperty@@ABVQVariant@@@Z
	DD	2 DUP(00H)
	DD	2 DUP(00H)
	DD	00H
	DD	01H
__unwindtable$?onValueChanged@ActionReceiver@@AAEXPAVQtProperty@@ABVQVariant@@@Z DD 0ffffffffH
	DD	FLAT:__unwindfunclet$?onValueChanged@ActionReceiver@@AAEXPAVQtProperty@@ABVQVariant@@@Z$0
	DD	00H
	DD	FLAT:__unwindfunclet$?onValueChanged@ActionReceiver@@AAEXPAVQtProperty@@ABVQVariant@@@Z$1
	DD	01H
	DD	FLAT:__unwindfunclet$?onValueChanged@ActionReceiver@@AAEXPAVQtProperty@@ABVQVariant@@@Z$2
	DD	0ffffffffH
	DD	FLAT:__unwindfunclet$?onValueChanged@ActionReceiver@@AAEXPAVQtProperty@@ABVQVariant@@@Z$22
xdata$x	ENDS
;	COMDAT xdata$x
xdata$x	SEGMENT
__ehfuncinfo$?onAttributeChanged@ActionReceiver@@AAEXPAVQtProperty@@ABVQString@@ABVQVariant@@@Z DD 019930522H
	DD	04H
	DD	FLAT:__unwindtable$?onAttributeChanged@ActionReceiver@@AAEXPAVQtProperty@@ABVQString@@ABVQVariant@@@Z
	DD	2 DUP(00H)
	DD	2 DUP(00H)
	DD	00H
	DD	01H
__unwindtable$?onAttributeChanged@ActionReceiver@@AAEXPAVQtProperty@@ABVQString@@ABVQVariant@@@Z DD 0ffffffffH
	DD	FLAT:__unwindfunclet$?onAttributeChanged@ActionReceiver@@AAEXPAVQtProperty@@ABVQString@@ABVQVariant@@@Z$0
	DD	00H
	DD	FLAT:__unwindfunclet$?onAttributeChanged@ActionReceiver@@AAEXPAVQtProperty@@ABVQString@@ABVQVariant@@@Z$1
	DD	01H
	DD	FLAT:__unwindfunclet$?onAttributeChanged@ActionReceiver@@AAEXPAVQtProperty@@ABVQString@@ABVQVariant@@@Z$2
	DD	0ffffffffH
	DD	FLAT:__unwindfunclet$?onAttributeChanged@ActionReceiver@@AAEXPAVQtProperty@@ABVQString@@ABVQVariant@@@Z$35
xdata$x	ENDS
;	COMDAT xdata$x
xdata$x	SEGMENT
__ehfuncinfo$?renderStarted@ActionReceiver@@AAEXXZ DD 019930522H
	DD	02H
	DD	FLAT:__unwindtable$?renderStarted@ActionReceiver@@AAEXXZ
	DD	2 DUP(00H)
	DD	2 DUP(00H)
	DD	00H
	DD	01H
__unwindtable$?renderStarted@ActionReceiver@@AAEXXZ DD 0ffffffffH
	DD	FLAT:__unwindfunclet$?renderStarted@ActionReceiver@@AAEXXZ$0
	DD	0ffffffffH
	DD	FLAT:__unwindfunclet$?renderStarted@ActionReceiver@@AAEXXZ$1
xdata$x	ENDS
;	COMDAT xdata$x
xdata$x	SEGMENT
__ehfuncinfo$?renderPageFinished@ActionReceiver@@AAEXH@Z DD 019930522H
	DD	02H
	DD	FLAT:__unwindtable$?renderPageFinished@ActionReceiver@@AAEXH@Z
	DD	2 DUP(00H)
	DD	2 DUP(00H)
	DD	00H
	DD	01H
__unwindtable$?renderPageFinished@ActionReceiver@@AAEXH@Z DD 0ffffffffH
	DD	FLAT:__unwindfunclet$?renderPageFinished@ActionReceiver@@AAEXH@Z$0
	DD	0ffffffffH
	DD	FLAT:__unwindfunclet$?renderPageFinished@ActionReceiver@@AAEXH@Z$1
xdata$x	ENDS
;	COMDAT xdata$x
xdata$x	SEGMENT
__ehfuncinfo$?renderFinished@ActionReceiver@@AAEXXZ DD 019930522H
	DD	02H
	DD	FLAT:__unwindtable$?renderFinished@ActionReceiver@@AAEXXZ
	DD	2 DUP(00H)
	DD	2 DUP(00H)
	DD	00H
	DD	01H
__unwindtable$?renderFinished@ActionReceiver@@AAEXXZ DD 0ffffffffH
	DD	FLAT:__unwindfunclet$?renderFinished@ActionReceiver@@AAEXXZ$0
	DD	0ffffffffH
	DD	FLAT:__unwindfunclet$?renderFinished@ActionReceiver@@AAEXXZ$1
xdata$x	ENDS
;	COMDAT xdata$x
xdata$x	SEGMENT
__ehfuncinfo$?dateTimeChanged@ActionReceiver@@AAEXABVQDateTime@@@Z DD 019930522H
	DD	02H
	DD	FLAT:__unwindtable$?dateTimeChanged@ActionReceiver@@AAEXABVQDateTime@@@Z
	DD	2 DUP(00H)
	DD	2 DUP(00H)
	DD	00H
	DD	01H
__unwindtable$?dateTimeChanged@ActionReceiver@@AAEXABVQDateTime@@@Z DD 0ffffffffH
	DD	FLAT:__unwindfunclet$?dateTimeChanged@ActionReceiver@@AAEXABVQDateTime@@@Z$0
	DD	0ffffffffH
	DD	FLAT:__unwindfunclet$?dateTimeChanged@ActionReceiver@@AAEXABVQDateTime@@@Z$1
xdata$x	ENDS
;	COMDAT xdata$x
xdata$x	SEGMENT
__ehfuncinfo$?timeChanged@ActionReceiver@@AAEXABVQTime@@@Z DD 019930522H
	DD	02H
	DD	FLAT:__unwindtable$?timeChanged@ActionReceiver@@AAEXABVQTime@@@Z
	DD	2 DUP(00H)
	DD	2 DUP(00H)
	DD	00H
	DD	01H
__unwindtable$?timeChanged@ActionReceiver@@AAEXABVQTime@@@Z DD 0ffffffffH
	DD	FLAT:__unwindfunclet$?timeChanged@ActionReceiver@@AAEXABVQTime@@@Z$0
	DD	0ffffffffH
	DD	FLAT:__unwindfunclet$?timeChanged@ActionReceiver@@AAEXABVQTime@@@Z$1
xdata$x	ENDS
;	COMDAT xdata$x
xdata$x	SEGMENT
__ehfuncinfo$?dateChanged@ActionReceiver@@AAEXABVQDate@@@Z DD 019930522H
	DD	02H
	DD	FLAT:__unwindtable$?dateChanged@ActionReceiver@@AAEXABVQDate@@@Z
	DD	2 DUP(00H)
	DD	2 DUP(00H)
	DD	00H
	DD	01H
__unwindtable$?dateChanged@ActionReceiver@@AAEXABVQDate@@@Z DD 0ffffffffH
	DD	FLAT:__unwindfunclet$?dateChanged@ActionReceiver@@AAEXABVQDate@@@Z$0
	DD	0ffffffffH
	DD	FLAT:__unwindfunclet$?dateChanged@ActionReceiver@@AAEXABVQDate@@@Z$1
xdata$x	ENDS
	ORG $+184
?bandTAG$initializer$@Const@LimeReport@@3P6AXXZA DD FLAT:??__EbandTAG@Const@LimeReport@@YAXXZ ; LimeReport::Const::bandTAG$initializer$
?FIELD_RX$initializer$@Const@LimeReport@@3P6AXXZA DD FLAT:??__EFIELD_RX@Const@LimeReport@@YAXXZ ; LimeReport::Const::FIELD_RX$initializer$
?VARIABLE_RX$initializer$@Const@LimeReport@@3P6AXXZA DD FLAT:??__EVARIABLE_RX@Const@LimeReport@@YAXXZ ; LimeReport::Const::VARIABLE_RX$initializer$
?NAMED_VARIABLE_RX$initializer$@Const@LimeReport@@3P6AXXZA DD FLAT:??__ENAMED_VARIABLE_RX@Const@LimeReport@@YAXXZ ; LimeReport::Const::NAMED_VARIABLE_RX$initializer$
?SCRIPT_RX$initializer$@Const@LimeReport@@3P6AXXZA DD FLAT:??__ESCRIPT_RX@Const@LimeReport@@YAXXZ ; LimeReport::Const::SCRIPT_RX$initializer$
?GROUP_FUNCTION_PARAM_RX$initializer$@Const@LimeReport@@3P6AXXZA DD FLAT:??__EGROUP_FUNCTION_PARAM_RX@Const@LimeReport@@YAXXZ ; LimeReport::Const::GROUP_FUNCTION_PARAM_RX$initializer$
?GROUP_FUNCTION_RX$initializer$@Const@LimeReport@@3P6AXXZA DD FLAT:??__EGROUP_FUNCTION_RX@Const@LimeReport@@YAXXZ ; LimeReport::Const::GROUP_FUNCTION_RX$initializer$
?GROUP_FUNCTION_NAME_RX$initializer$@Const@LimeReport@@3P6AXXZA DD FLAT:??__EGROUP_FUNCTION_NAME_RX@Const@LimeReport@@YAXXZ ; LimeReport::Const::GROUP_FUNCTION_NAME_RX$initializer$
?FUNCTION_MANAGER_NAME$initializer$@Const@LimeReport@@3P6AXXZA DD FLAT:??__EFUNCTION_MANAGER_NAME@Const@LimeReport@@YAXXZ ; LimeReport::Const::FUNCTION_MANAGER_NAME$initializer$
?DATAFUNCTIONS_MANAGER_NAME$initializer$@Const@LimeReport@@3P6AXXZA DD FLAT:??__EDATAFUNCTIONS_MANAGER_NAME@Const@LimeReport@@YAXXZ ; LimeReport::Const::DATAFUNCTIONS_MANAGER_NAME$initializer$
?EOW$initializer$@Const@LimeReport@@3P6AXXZA DD FLAT:??__EEOW@Const@LimeReport@@YAXXZ ; LimeReport::Const::EOW$initializer$
; Function compile flags: /Ogtpy
;	COMDAT ?metaObject@ActionReceiver@@UBEPBUQMetaObject@@XZ
_TEXT	SEGMENT
?metaObject@ActionReceiver@@UBEPBUQMetaObject@@XZ PROC	; ActionReceiver::metaObject, COMDAT
; _this$ = ecx
; File e:\developments\cadaqs\canamespace\castudio\xcross\xlang\xlang\xlibrarys\qxlibrary\qxlibrary\generatedfiles\release\moc_qxapplication.cpp
; Line 611
	mov	ecx, DWORD PTR [ecx+4]
	cmp	DWORD PTR [ecx+24], 0
	jne	?dynamicMetaObject@QObjectData@@QBEPAUQMetaObject@@XZ ; QObjectData::dynamicMetaObject
	mov	eax, OFFSET ?staticMetaObject@ActionReceiver@@2UQMetaObject@@B ; ActionReceiver::staticMetaObject
; Line 612
	ret	0
?metaObject@ActionReceiver@@UBEPBUQMetaObject@@XZ ENDP	; ActionReceiver::metaObject
_TEXT	ENDS
; Function compile flags: /Ogtpy
;	COMDAT ?qt_metacast@ActionReceiver@@UAEPAXPBD@Z
_TEXT	SEGMENT
__clname$ = 8						; size = 4
?qt_metacast@ActionReceiver@@UAEPAXPBD@Z PROC		; ActionReceiver::qt_metacast, COMDAT
; _this$ = ecx
; File e:\developments\cadaqs\canamespace\castudio\xcross\xlang\xlang\xlibrarys\qxlibrary\qxlibrary\generatedfiles\release\moc_qxapplication.cpp
; Line 615
	push	esi
; Line 616
	mov	esi, DWORD PTR __clname$[esp]
	push	edi
	mov	edi, ecx
	test	esi, esi
	jne	SHORT $LN2@qt_metacas
	pop	edi
	xor	eax, eax
	pop	esi
; Line 620
	ret	4
$LN2@qt_metacas:
; Line 617
	mov	eax, OFFSET ?qt_meta_stringdata_ActionReceiver@@3Uqt_meta_stringdata_ActionReceiver_t@@B+2336
	mov	ecx, esi
	npad	6
$LL5@qt_metacas:
	mov	dl, BYTE PTR [ecx]
	cmp	dl, BYTE PTR [eax]
	jne	SHORT $LN6@qt_metacas
	test	dl, dl
	je	SHORT $LN7@qt_metacas
	mov	dl, BYTE PTR [ecx+1]
	cmp	dl, BYTE PTR [eax+1]
	jne	SHORT $LN6@qt_metacas
	add	ecx, 2
	add	eax, 2
	test	dl, dl
	jne	SHORT $LL5@qt_metacas
$LN7@qt_metacas:
	xor	eax, eax
	jmp	SHORT $LN8@qt_metacas
$LN6@qt_metacas:
	sbb	eax, eax
	or	eax, 1
$LN8@qt_metacas:
	test	eax, eax
	jne	SHORT $LN3@qt_metacas
; Line 618
	mov	eax, edi
	pop	edi
	pop	esi
; Line 620
	ret	4
$LN3@qt_metacas:
; Line 619
	push	esi
	mov	ecx, edi
	call	?qt_metacast@QObject@@UAEPAXPBD@Z	; QObject::qt_metacast
	pop	edi
	pop	esi
; Line 620
	ret	4
?qt_metacast@ActionReceiver@@UAEPAXPBD@Z ENDP		; ActionReceiver::qt_metacast
_TEXT	ENDS
; Function compile flags: /Ogtpy
;	COMDAT ?qt_metacall@ActionReceiver@@UAEHW4Call@QMetaObject@@HPAPAX@Z
_TEXT	SEGMENT
__c$ = 8						; size = 4
__id$ = 12						; size = 4
__a$ = 16						; size = 4
?qt_metacall@ActionReceiver@@UAEHW4Call@QMetaObject@@HPAPAX@Z PROC ; ActionReceiver::qt_metacall, COMDAT
; _this$ = ecx
; File e:\developments\cadaqs\canamespace\castudio\xcross\xlang\xlang\xlibrarys\qxlibrary\qxlibrary\generatedfiles\release\moc_qxapplication.cpp
; Line 623
	push	ebx
; Line 624
	mov	ebx, DWORD PTR __a$[esp]
	push	ebp
	push	esi
	push	edi
	mov	edi, DWORD PTR __c$[esp+12]
	mov	ebp, ecx
	push	ebx
	push	DWORD PTR __id$[esp+16]
	push	edi
	call	?qt_metacall@QObject@@UAEHW4Call@QMetaObject@@HPAPAX@Z ; QObject::qt_metacall
	mov	esi, eax
; Line 625
	test	esi, esi
	js	SHORT $LN1@qt_metacal
; Line 627
	test	edi, edi
	jne	SHORT $LN3@qt_metacal
; Line 628
	cmp	esi, 89					; 00000059H
	jge	SHORT $LN7@qt_metacal
; Line 629
	push	ebx
	push	esi
	push	edi
	push	ebp
	call	?qt_static_metacall@ActionReceiver@@CAXPAVQObject@@W4Call@QMetaObject@@HPAPAX@Z ; ActionReceiver::qt_static_metacall
	add	esp, 16					; 00000010H
; Line 634
	sub	esi, 89					; 00000059H
; Line 636
	mov	eax, esi
	pop	edi
	pop	esi
	pop	ebp
	pop	ebx
; Line 637
	ret	12					; 0000000cH
$LN3@qt_metacal:
; Line 631
	cmp	edi, 12					; 0000000cH
	jne	SHORT $LN6@qt_metacal
; Line 632
	cmp	esi, 89					; 00000059H
	jge	SHORT $LN7@qt_metacal
; Line 633
	mov	eax, DWORD PTR [ebx]
	mov	DWORD PTR [eax], -1
$LN7@qt_metacal:
; Line 634
	sub	esi, 89					; 00000059H
$LN6@qt_metacal:
; Line 636
	mov	eax, esi
$LN1@qt_metacal:
	pop	edi
	pop	esi
	pop	ebp
	pop	ebx
; Line 637
	ret	12					; 0000000cH
?qt_metacall@ActionReceiver@@UAEHW4Call@QMetaObject@@HPAPAX@Z ENDP ; ActionReceiver::qt_metacall
_TEXT	ENDS
; Function compile flags: /Ogtpy
;	COMDAT ?metaObject@QXApplication@@UBEPBUQMetaObject@@XZ
_TEXT	SEGMENT
?metaObject@QXApplication@@UBEPBUQMetaObject@@XZ PROC	; QXApplication::metaObject, COMDAT
; _this$ = ecx
; File e:\developments\cadaqs\canamespace\castudio\xcross\xlang\xlang\xlibrarys\qxlibrary\qxlibrary\generatedfiles\release\moc_qxapplication.cpp
; Line 73
	mov	ecx, DWORD PTR [ecx+4]
	cmp	DWORD PTR [ecx+24], 0
	jne	?dynamicMetaObject@QObjectData@@QBEPAUQMetaObject@@XZ ; QObjectData::dynamicMetaObject
	mov	eax, OFFSET ?staticMetaObject@QXApplication@@2UQMetaObject@@B ; QXApplication::staticMetaObject
; Line 74
	ret	0
?metaObject@QXApplication@@UBEPBUQMetaObject@@XZ ENDP	; QXApplication::metaObject
_TEXT	ENDS
; Function compile flags: /Ogtpy
;	COMDAT ?qt_metacast@QXApplication@@UAEPAXPBD@Z
_TEXT	SEGMENT
__clname$ = 8						; size = 4
?qt_metacast@QXApplication@@UAEPAXPBD@Z PROC		; QXApplication::qt_metacast, COMDAT
; _this$ = ecx
; File e:\developments\cadaqs\canamespace\castudio\xcross\xlang\xlang\xlibrarys\qxlibrary\qxlibrary\generatedfiles\release\moc_qxapplication.cpp
; Line 77
	push	esi
; Line 78
	mov	esi, DWORD PTR __clname$[esp]
	push	edi
	mov	edi, ecx
	test	esi, esi
	jne	SHORT $LN2@qt_metacas
	pop	edi
	xor	eax, eax
	pop	esi
; Line 82
	ret	4
$LN2@qt_metacas:
; Line 79
	mov	eax, OFFSET ?qt_meta_stringdata_QXApplication@@3Uqt_meta_stringdata_QXApplication_t@@B+16
	mov	ecx, esi
	npad	6
$LL5@qt_metacas:
	mov	dl, BYTE PTR [ecx]
	cmp	dl, BYTE PTR [eax]
	jne	SHORT $LN6@qt_metacas
	test	dl, dl
	je	SHORT $LN7@qt_metacas
	mov	dl, BYTE PTR [ecx+1]
	cmp	dl, BYTE PTR [eax+1]
	jne	SHORT $LN6@qt_metacas
	add	ecx, 2
	add	eax, 2
	test	dl, dl
	jne	SHORT $LL5@qt_metacas
$LN7@qt_metacas:
	xor	eax, eax
	jmp	SHORT $LN8@qt_metacas
$LN6@qt_metacas:
	sbb	eax, eax
	or	eax, 1
$LN8@qt_metacas:
	test	eax, eax
	jne	SHORT $LN3@qt_metacas
; Line 80
	mov	eax, edi
	pop	edi
	pop	esi
; Line 82
	ret	4
$LN3@qt_metacas:
; Line 81
	push	esi
	mov	ecx, edi
	call	?qt_metacast@QApplication@@UAEPAXPBD@Z	; QApplication::qt_metacast
	pop	edi
	pop	esi
; Line 82
	ret	4
?qt_metacast@QXApplication@@UAEPAXPBD@Z ENDP		; QXApplication::qt_metacast
_TEXT	ENDS
; Function compile flags: /Ogtpy
;	COMDAT ?qt_metacall@QXApplication@@UAEHW4Call@QMetaObject@@HPAPAX@Z
_TEXT	SEGMENT
__c$ = 8						; size = 4
__id$ = 12						; size = 4
__a$ = 16						; size = 4
?qt_metacall@QXApplication@@UAEHW4Call@QMetaObject@@HPAPAX@Z PROC ; QXApplication::qt_metacall, COMDAT
; _this$ = ecx
; File e:\developments\cadaqs\canamespace\castudio\xcross\xlang\xlang\xlibrarys\qxlibrary\qxlibrary\generatedfiles\release\moc_qxapplication.cpp
; Line 86
	jmp	?qt_metacall@QApplication@@UAEHW4Call@QMetaObject@@HPAPAX@Z ; QApplication::qt_metacall
?qt_metacall@QXApplication@@UAEHW4Call@QMetaObject@@HPAPAX@Z ENDP ; QXApplication::qt_metacall
_TEXT	ENDS
; Function compile flags: /Ogtpy
;	COMDAT ?qt_metatype_id@?$QMetaTypeId2@_N@@SAHXZ
_TEXT	SEGMENT
?qt_metatype_id@?$QMetaTypeId2@_N@@SAHXZ PROC		; QMetaTypeId2<bool>::qt_metatype_id, COMDAT
; File e:\qt512\qt5.12.0\5.9.1\win32_static\include\qtcore\qmetatype.h
; Line 2187
	mov	eax, 1
	ret	0
?qt_metatype_id@?$QMetaTypeId2@_N@@SAHXZ ENDP		; QMetaTypeId2<bool>::qt_metatype_id
_TEXT	ENDS
; Function compile flags: /Ogtpy
;	COMDAT ?qt_metatype_id@?$QMetaTypeId2@H@@SAHXZ
_TEXT	SEGMENT
?qt_metatype_id@?$QMetaTypeId2@H@@SAHXZ PROC		; QMetaTypeId2<int>::qt_metatype_id, COMDAT
; File e:\qt512\qt5.12.0\5.9.1\win32_static\include\qtcore\qmetatype.h
; Line 2187
	mov	eax, 2
	ret	0
?qt_metatype_id@?$QMetaTypeId2@H@@SAHXZ ENDP		; QMetaTypeId2<int>::qt_metatype_id
_TEXT	ENDS
; Function compile flags: /Ogtpy
;	COMDAT ?qt_metatype_id@?$QMetaTypeId2@N@@SAHXZ
_TEXT	SEGMENT
?qt_metatype_id@?$QMetaTypeId2@N@@SAHXZ PROC		; QMetaTypeId2<double>::qt_metatype_id, COMDAT
; File e:\qt512\qt5.12.0\5.9.1\win32_static\include\qtcore\qmetatype.h
; Line 2187
	mov	eax, 6
	ret	0
?qt_metatype_id@?$QMetaTypeId2@N@@SAHXZ ENDP		; QMetaTypeId2<double>::qt_metatype_id
_TEXT	ENDS
; Function compile flags: /Ogtpy
;	COMDAT ?qt_metatype_id@?$QMetaTypeId2@F@@SAHXZ
_TEXT	SEGMENT
?qt_metatype_id@?$QMetaTypeId2@F@@SAHXZ PROC		; QMetaTypeId2<short>::qt_metatype_id, COMDAT
; File e:\qt512\qt5.12.0\5.9.1\win32_static\include\qtcore\qmetatype.h
; Line 2187
	mov	eax, 33					; 00000021H
	ret	0
?qt_metatype_id@?$QMetaTypeId2@F@@SAHXZ ENDP		; QMetaTypeId2<short>::qt_metatype_id
_TEXT	ENDS
; Function compile flags: /Ogtpy
;	COMDAT ?qt_metatype_id@?$QMetaTypeId2@G@@SAHXZ
_TEXT	SEGMENT
?qt_metatype_id@?$QMetaTypeId2@G@@SAHXZ PROC		; QMetaTypeId2<unsigned short>::qt_metatype_id, COMDAT
; File e:\qt512\qt5.12.0\5.9.1\win32_static\include\qtcore\qmetatype.h
; Line 2187
	mov	eax, 36					; 00000024H
	ret	0
?qt_metatype_id@?$QMetaTypeId2@G@@SAHXZ ENDP		; QMetaTypeId2<unsigned short>::qt_metatype_id
_TEXT	ENDS
; Function compile flags: /Ogtpy
;	COMDAT ?qt_metatype_id@?$QMetaTypeId2@E@@SAHXZ
_TEXT	SEGMENT
?qt_metatype_id@?$QMetaTypeId2@E@@SAHXZ PROC		; QMetaTypeId2<unsigned char>::qt_metatype_id, COMDAT
; File e:\qt512\qt5.12.0\5.9.1\win32_static\include\qtcore\qmetatype.h
; Line 2187
	mov	eax, 37					; 00000025H
	ret	0
?qt_metatype_id@?$QMetaTypeId2@E@@SAHXZ ENDP		; QMetaTypeId2<unsigned char>::qt_metatype_id
_TEXT	ENDS
; Function compile flags: /Ogtpy
;	COMDAT ?qt_metatype_id@?$QMetaTypeId2@VQString@@@@SAHXZ
_TEXT	SEGMENT
?qt_metatype_id@?$QMetaTypeId2@VQString@@@@SAHXZ PROC	; QMetaTypeId2<QString>::qt_metatype_id, COMDAT
; File e:\qt512\qt5.12.0\5.9.1\win32_static\include\qtcore\qmetatype.h
; Line 2187
	mov	eax, 10					; 0000000aH
	ret	0
?qt_metatype_id@?$QMetaTypeId2@VQString@@@@SAHXZ ENDP	; QMetaTypeId2<QString>::qt_metatype_id
_TEXT	ENDS
; Function compile flags: /Ogtpy
;	COMDAT ??0QVariant@@QAE@XZ
_TEXT	SEGMENT
??0QVariant@@QAE@XZ PROC				; QVariant::QVariant, COMDAT
; _this$ = ecx
; File e:\qt512\qt5.12.0\5.9.1\win32_static\include\qtcore\qvariant.h
; Line 199
	mov	DWORD PTR [ecx+8], -2147483648		; 80000000H
	mov	eax, ecx
	mov	DWORD PTR [ecx], 0
	ret	0
??0QVariant@@QAE@XZ ENDP				; QVariant::QVariant
_TEXT	ENDS
; Function compile flags: /Ogtpy
;	COMDAT ??4QVariant@@QAEAAV0@$$QAV0@@Z
_TEXT	SEGMENT
__Tmp$1 = -16						; size = 16
_other$ = 8						; size = 4
??4QVariant@@QAEAAV0@$$QAV0@@Z PROC			; QVariant::operator=, COMDAT
; _this$ = ecx
; File e:\qt512\qt5.12.0\5.9.1\win32_static\include\qtcore\qvariant.h
; Line 267
	sub	esp, 16					; 00000010H
	mov	eax, DWORD PTR [ecx]
	mov	DWORD PTR __Tmp$1[esp+16], eax
	mov	eax, DWORD PTR [ecx+4]
	mov	DWORD PTR __Tmp$1[esp+20], eax
	mov	eax, DWORD PTR [ecx+8]
	mov	DWORD PTR __Tmp$1[esp+24], eax
	mov	eax, DWORD PTR _other$[esp+12]
	movups	xmm0, XMMWORD PTR [eax]
	movups	XMMWORD PTR [ecx], xmm0
	movups	xmm0, XMMWORD PTR __Tmp$1[esp+16]
	movups	XMMWORD PTR [eax], xmm0
	mov	eax, ecx
	add	esp, 16					; 00000010H
	ret	4
??4QVariant@@QAEAAV0@$$QAV0@@Z ENDP			; QVariant::operator=
_TEXT	ENDS
; Function compile flags: /Ogtpy
;	COMDAT ??0Private@QVariant@@QAE@XZ
_TEXT	SEGMENT
??0Private@QVariant@@QAE@XZ PROC			; QVariant::Private::Private, COMDAT
; _this$ = ecx
; File e:\qt512\qt5.12.0\5.9.1\win32_static\include\qtcore\qvariant.h
; Line 372
	mov	DWORD PTR [ecx+8], -2147483648		; 80000000H
; Line 373
	mov	eax, ecx
	mov	DWORD PTR [ecx], 0
	ret	0
??0Private@QVariant@@QAE@XZ ENDP			; QVariant::Private::Private
_TEXT	ENDS
; Function compile flags: /Ogtpy
;	COMDAT ??0Private@QVariant@@QAE@ABU01@@Z
_TEXT	SEGMENT
_other$ = 8						; size = 4
??0Private@QVariant@@QAE@ABU01@@Z PROC			; QVariant::Private::Private, COMDAT
; _this$ = ecx
; File e:\qt512\qt5.12.0\5.9.1\win32_static\include\qtcore\qvariant.h
; Line 381
	mov	edx, DWORD PTR _other$[esp-4]
	push	esi
; Line 383
	mov	esi, ecx
	mov	eax, DWORD PTR [edx]
	mov	DWORD PTR [esi], eax
	mov	eax, DWORD PTR [edx+4]
	mov	DWORD PTR [esi+4], eax
	mov	eax, DWORD PTR [esi+8]
	xor	eax, DWORD PTR [edx+8]
	and	eax, 1073741823				; 3fffffffH
	xor	DWORD PTR [esi+8], eax
	mov	ecx, DWORD PTR [edx+8]
	xor	ecx, DWORD PTR [esi+8]
	and	ecx, 1073741824				; 40000000H
	xor	ecx, DWORD PTR [esi+8]
	mov	DWORD PTR [esi+8], ecx
	mov	eax, DWORD PTR [edx+8]
	xor	eax, ecx
	and	eax, 2147483647				; 7fffffffH
	xor	eax, DWORD PTR [edx+8]
	mov	DWORD PTR [esi+8], eax
	mov	eax, esi
	pop	esi
	ret	4
??0Private@QVariant@@QAE@ABU01@@Z ENDP			; QVariant::Private::Private
_TEXT	ENDS
; Function compile flags: /Ogtpy
;	COMDAT ?data_ptr@QVariant@@QAEAAUPrivate@1@XZ
_TEXT	SEGMENT
?data_ptr@QVariant@@QAEAAUPrivate@1@XZ PROC		; QVariant::data_ptr, COMDAT
; _this$ = ecx
; File e:\qt512\qt5.12.0\5.9.1\win32_static\include\qtcore\qvariant.h
; Line 495
	mov	eax, ecx
	ret	0
?data_ptr@QVariant@@QAEAAUPrivate@1@XZ ENDP		; QVariant::data_ptr
_TEXT	ENDS
; Function compile flags: /Ogtpy
;	COMDAT ?isDetached@QVariant@@QBE_NXZ
_TEXT	SEGMENT
?isDetached@QVariant@@QBE_NXZ PROC			; QVariant::isDetached, COMDAT
; _this$ = ecx
; File e:\qt512\qt5.12.0\5.9.1\win32_static\include\qtcore\qvariant.h
; Line 546
	test	DWORD PTR [ecx+8], 1073741824		; 40000000H
	je	SHORT $LN3@isDetached
	mov	eax, DWORD PTR [ecx]
	cmp	DWORD PTR [eax+4], 1
	je	SHORT $LN3@isDetached
	xor	al, al
	ret	0
$LN3@isDetached:
	mov	al, 1
	ret	0
?isDetached@QVariant@@QBE_NXZ ENDP			; QVariant::isDetached
_TEXT	ENDS
; Function compile flags: /Ogtpy
;	COMDAT ??__EbandTAG@Const@LimeReport@@YAXXZ
text$di	SEGMENT
??__EbandTAG@Const@LimeReport@@YAXXZ PROC		; LimeReport::Const::`dynamic initializer for 'bandTAG'', COMDAT
; File e:\qt512\qt5.12.0\5.9.1\win32_static\include\lrglobal.h
; Line 69
	push	4
	push	OFFSET ??_C@_04BKGNPECA@band?$AA@
	call	?fromAscii_helper@QString@@CAPAU?$QTypedArrayData@G@@PBDH@Z ; QString::fromAscii_helper
	push	OFFSET ??__FbandTAG@Const@LimeReport@@YAXXZ ; LimeReport::Const::`dynamic atexit destructor for 'bandTAG''
	mov	DWORD PTR ?bandTAG@Const@LimeReport@@3VQString@@B, eax
	call	_atexit
	add	esp, 12					; 0000000cH
	ret	0
??__EbandTAG@Const@LimeReport@@YAXXZ ENDP		; LimeReport::Const::`dynamic initializer for 'bandTAG''
text$di	ENDS
; Function compile flags: /Ogtpy
;	COMDAT ??__FbandTAG@Const@LimeReport@@YAXXZ
text$yd	SEGMENT
??__FbandTAG@Const@LimeReport@@YAXXZ PROC		; LimeReport::Const::`dynamic atexit destructor for 'bandTAG'', COMDAT
	mov	eax, DWORD PTR ?bandTAG@Const@LimeReport@@3VQString@@B
	mov	ecx, DWORD PTR [eax]
	test	ecx, ecx
	je	SHORT $LN28@dynamic
	cmp	ecx, -1
	je	SHORT $LN4@dynamic
	or	ecx, -1
	lock	 xadd	 DWORD PTR [eax], ecx
	setne	al
	test	al, al
	jne	SHORT $LN4@dynamic
	mov	eax, DWORD PTR ?bandTAG@Const@LimeReport@@3VQString@@B
$LN28@dynamic:
	push	4
	push	2
	push	eax
	call	?deallocate@QArrayData@@SAXPAU1@II@Z	; QArrayData::deallocate
	add	esp, 12					; 0000000cH
$LN4@dynamic:
	ret	0
??__FbandTAG@Const@LimeReport@@YAXXZ ENDP		; LimeReport::Const::`dynamic atexit destructor for 'bandTAG''
text$yd	ENDS
; Function compile flags: /Ogtpy
;	COMDAT ??__EFIELD_RX@Const@LimeReport@@YAXXZ
text$di	SEGMENT
??__EFIELD_RX@Const@LimeReport@@YAXXZ PROC		; LimeReport::Const::`dynamic initializer for 'FIELD_RX'', COMDAT
; File e:\qt512\qt5.12.0\5.9.1\win32_static\include\lrglobal.h
; Line 77
	push	24					; 00000018H
	push	OFFSET ??_C@_0BJ@DLEELNIH@?2$D?2s?$CK?2?$HL?2s?$CK?$CI?$FL?$FO?$HL?$HN?$FN?$CK?$CJ?2s?$CK?2?$HN?$AA@
	call	?fromAscii_helper@QString@@CAPAU?$QTypedArrayData@G@@PBDH@Z ; QString::fromAscii_helper
	push	OFFSET ??__FFIELD_RX@Const@LimeReport@@YAXXZ ; LimeReport::Const::`dynamic atexit destructor for 'FIELD_RX''
	mov	DWORD PTR ?FIELD_RX@Const@LimeReport@@3VQString@@B, eax
	call	_atexit
	add	esp, 12					; 0000000cH
	ret	0
??__EFIELD_RX@Const@LimeReport@@YAXXZ ENDP		; LimeReport::Const::`dynamic initializer for 'FIELD_RX''
text$di	ENDS
; Function compile flags: /Ogtpy
;	COMDAT ??__FFIELD_RX@Const@LimeReport@@YAXXZ
text$yd	SEGMENT
??__FFIELD_RX@Const@LimeReport@@YAXXZ PROC		; LimeReport::Const::`dynamic atexit destructor for 'FIELD_RX'', COMDAT
	mov	eax, DWORD PTR ?FIELD_RX@Const@LimeReport@@3VQString@@B
	mov	ecx, DWORD PTR [eax]
	test	ecx, ecx
	je	SHORT $LN28@dynamic
	cmp	ecx, -1
	je	SHORT $LN4@dynamic
	or	ecx, -1
	lock	 xadd	 DWORD PTR [eax], ecx
	setne	al
	test	al, al
	jne	SHORT $LN4@dynamic
	mov	eax, DWORD PTR ?FIELD_RX@Const@LimeReport@@3VQString@@B
$LN28@dynamic:
	push	4
	push	2
	push	eax
	call	?deallocate@QArrayData@@SAXPAU1@II@Z	; QArrayData::deallocate
	add	esp, 12					; 0000000cH
$LN4@dynamic:
	ret	0
??__FFIELD_RX@Const@LimeReport@@YAXXZ ENDP		; LimeReport::Const::`dynamic atexit destructor for 'FIELD_RX''
text$yd	ENDS
; Function compile flags: /Ogtpy
;	COMDAT ??__EVARIABLE_RX@Const@LimeReport@@YAXXZ
text$di	SEGMENT
??__EVARIABLE_RX@Const@LimeReport@@YAXXZ PROC		; LimeReport::Const::`dynamic initializer for 'VARIABLE_RX'', COMDAT
; File e:\qt512\qt5.12.0\5.9.1\win32_static\include\lrglobal.h
; Line 78
	push	63					; 0000003fH
	push	OFFSET ??_C@_0EA@IOGKBKCM@?2$V?2s?$CK?2?$HL?2s?$CK?$CI?$DP?3?$CI?$FL?$FO?2?$HL?2?$HN?0?$FN?$CK?$CJ?$HM?$CI?$DP?3?$CI?$FL?$FO@
	call	?fromAscii_helper@QString@@CAPAU?$QTypedArrayData@G@@PBDH@Z ; QString::fromAscii_helper
	push	OFFSET ??__FVARIABLE_RX@Const@LimeReport@@YAXXZ ; LimeReport::Const::`dynamic atexit destructor for 'VARIABLE_RX''
	mov	DWORD PTR ?VARIABLE_RX@Const@LimeReport@@3VQString@@B, eax
	call	_atexit
	add	esp, 12					; 0000000cH
	ret	0
??__EVARIABLE_RX@Const@LimeReport@@YAXXZ ENDP		; LimeReport::Const::`dynamic initializer for 'VARIABLE_RX''
text$di	ENDS
; Function compile flags: /Ogtpy
;	COMDAT ??__FVARIABLE_RX@Const@LimeReport@@YAXXZ
text$yd	SEGMENT
??__FVARIABLE_RX@Const@LimeReport@@YAXXZ PROC		; LimeReport::Const::`dynamic atexit destructor for 'VARIABLE_RX'', COMDAT
	mov	eax, DWORD PTR ?VARIABLE_RX@Const@LimeReport@@3VQString@@B
	mov	ecx, DWORD PTR [eax]
	test	ecx, ecx
	je	SHORT $LN28@dynamic
	cmp	ecx, -1
	je	SHORT $LN4@dynamic
	or	ecx, -1
	lock	 xadd	 DWORD PTR [eax], ecx
	setne	al
	test	al, al
	jne	SHORT $LN4@dynamic
	mov	eax, DWORD PTR ?VARIABLE_RX@Const@LimeReport@@3VQString@@B
$LN28@dynamic:
	push	4
	push	2
	push	eax
	call	?deallocate@QArrayData@@SAXPAU1@II@Z	; QArrayData::deallocate
	add	esp, 12					; 0000000cH
$LN4@dynamic:
	ret	0
??__FVARIABLE_RX@Const@LimeReport@@YAXXZ ENDP		; LimeReport::Const::`dynamic atexit destructor for 'VARIABLE_RX''
text$yd	ENDS
; Function compile flags: /Ogtpy
;	COMDAT ??__ENAMED_VARIABLE_RX@Const@LimeReport@@YAXXZ
text$di	SEGMENT
??__ENAMED_VARIABLE_RX@Const@LimeReport@@YAXXZ PROC	; LimeReport::Const::`dynamic initializer for 'NAMED_VARIABLE_RX'', COMDAT
; File e:\qt512\qt5.12.0\5.9.1\win32_static\include\lrglobal.h
; Line 79
	push	50					; 00000032H
	push	OFFSET ??_C@_0DD@HNMAODOA@?2$V?2s?$CK?2?$HL?2s?$CK?$CI?$DP?3?$CI?$CF1?$CJ?$HM?$CI?$DP?3?$CI?$CF1?$CJ?2s?$CK?0?2s@
	call	?fromAscii_helper@QString@@CAPAU?$QTypedArrayData@G@@PBDH@Z ; QString::fromAscii_helper
	push	OFFSET ??__FNAMED_VARIABLE_RX@Const@LimeReport@@YAXXZ ; LimeReport::Const::`dynamic atexit destructor for 'NAMED_VARIABLE_RX''
	mov	DWORD PTR ?NAMED_VARIABLE_RX@Const@LimeReport@@3VQString@@B, eax
	call	_atexit
	add	esp, 12					; 0000000cH
	ret	0
??__ENAMED_VARIABLE_RX@Const@LimeReport@@YAXXZ ENDP	; LimeReport::Const::`dynamic initializer for 'NAMED_VARIABLE_RX''
text$di	ENDS
; Function compile flags: /Ogtpy
;	COMDAT ??__FNAMED_VARIABLE_RX@Const@LimeReport@@YAXXZ
text$yd	SEGMENT
??__FNAMED_VARIABLE_RX@Const@LimeReport@@YAXXZ PROC	; LimeReport::Const::`dynamic atexit destructor for 'NAMED_VARIABLE_RX'', COMDAT
	mov	eax, DWORD PTR ?NAMED_VARIABLE_RX@Const@LimeReport@@3VQString@@B
	mov	ecx, DWORD PTR [eax]
	test	ecx, ecx
	je	SHORT $LN28@dynamic
	cmp	ecx, -1
	je	SHORT $LN4@dynamic
	or	ecx, -1
	lock	 xadd	 DWORD PTR [eax], ecx
	setne	al
	test	al, al
	jne	SHORT $LN4@dynamic
	mov	eax, DWORD PTR ?NAMED_VARIABLE_RX@Const@LimeReport@@3VQString@@B
$LN28@dynamic:
	push	4
	push	2
	push	eax
	call	?deallocate@QArrayData@@SAXPAU1@II@Z	; QArrayData::deallocate
	add	esp, 12					; 0000000cH
$LN4@dynamic:
	ret	0
??__FNAMED_VARIABLE_RX@Const@LimeReport@@YAXXZ ENDP	; LimeReport::Const::`dynamic atexit destructor for 'NAMED_VARIABLE_RX''
text$yd	ENDS
; Function compile flags: /Ogtpy
;	COMDAT ??__ESCRIPT_RX@Const@LimeReport@@YAXXZ
text$di	SEGMENT
??__ESCRIPT_RX@Const@LimeReport@@YAXXZ PROC		; LimeReport::Const::`dynamic initializer for 'SCRIPT_RX'', COMDAT
; File e:\qt512\qt5.12.0\5.9.1\win32_static\include\lrglobal.h
; Line 80
	push	14					; 0000000eH
	push	OFFSET ??_C@_0P@IINCIGLD@?2$S?2s?$CK?2?$HL?$CI?4?$CK?$CJ?2?$HN?$AA@
	call	?fromAscii_helper@QString@@CAPAU?$QTypedArrayData@G@@PBDH@Z ; QString::fromAscii_helper
	push	OFFSET ??__FSCRIPT_RX@Const@LimeReport@@YAXXZ ; LimeReport::Const::`dynamic atexit destructor for 'SCRIPT_RX''
	mov	DWORD PTR ?SCRIPT_RX@Const@LimeReport@@3VQString@@B, eax
	call	_atexit
	add	esp, 12					; 0000000cH
	ret	0
??__ESCRIPT_RX@Const@LimeReport@@YAXXZ ENDP		; LimeReport::Const::`dynamic initializer for 'SCRIPT_RX''
text$di	ENDS
; Function compile flags: /Ogtpy
;	COMDAT ??__FSCRIPT_RX@Const@LimeReport@@YAXXZ
text$yd	SEGMENT
??__FSCRIPT_RX@Const@LimeReport@@YAXXZ PROC		; LimeReport::Const::`dynamic atexit destructor for 'SCRIPT_RX'', COMDAT
	mov	eax, DWORD PTR ?SCRIPT_RX@Const@LimeReport@@3VQString@@B
	mov	ecx, DWORD PTR [eax]
	test	ecx, ecx
	je	SHORT $LN28@dynamic
	cmp	ecx, -1
	je	SHORT $LN4@dynamic
	or	ecx, -1
	lock	 xadd	 DWORD PTR [eax], ecx
	setne	al
	test	al, al
	jne	SHORT $LN4@dynamic
	mov	eax, DWORD PTR ?SCRIPT_RX@Const@LimeReport@@3VQString@@B
$LN28@dynamic:
	push	4
	push	2
	push	eax
	call	?deallocate@QArrayData@@SAXPAU1@II@Z	; QArrayData::deallocate
	add	esp, 12					; 0000000cH
$LN4@dynamic:
	ret	0
??__FSCRIPT_RX@Const@LimeReport@@YAXXZ ENDP		; LimeReport::Const::`dynamic atexit destructor for 'SCRIPT_RX''
text$yd	ENDS
; Function compile flags: /Ogtpy
;	COMDAT ??__EGROUP_FUNCTION_PARAM_RX@Const@LimeReport@@YAXXZ
text$di	SEGMENT
??__EGROUP_FUNCTION_PARAM_RX@Const@LimeReport@@YAXXZ PROC ; LimeReport::Const::`dynamic initializer for 'GROUP_FUNCTION_PARAM_RX'', COMDAT
; File e:\qt512\qt5.12.0\5.9.1\win32_static\include\lrglobal.h
; Line 81
	push	172					; 000000acH
	push	OFFSET ??_C@_0KN@HDBCFDGL@?2?$CI?2s?$CK?$CI?$CI?$DP?3?$CI?$DP?3?2?$CC?$CJ?$HM?$CI?$DP?3?$CJ?$CJ?$CI?$DP?3?$CI?$DP?3?2$?$CI?$DP?3@
	call	?fromAscii_helper@QString@@CAPAU?$QTypedArrayData@G@@PBDH@Z ; QString::fromAscii_helper
	push	OFFSET ??__FGROUP_FUNCTION_PARAM_RX@Const@LimeReport@@YAXXZ ; LimeReport::Const::`dynamic atexit destructor for 'GROUP_FUNCTION_PARAM_RX''
	mov	DWORD PTR ?GROUP_FUNCTION_PARAM_RX@Const@LimeReport@@3VQString@@B, eax
	call	_atexit
	add	esp, 12					; 0000000cH
	ret	0
??__EGROUP_FUNCTION_PARAM_RX@Const@LimeReport@@YAXXZ ENDP ; LimeReport::Const::`dynamic initializer for 'GROUP_FUNCTION_PARAM_RX''
text$di	ENDS
; Function compile flags: /Ogtpy
;	COMDAT ??__FGROUP_FUNCTION_PARAM_RX@Const@LimeReport@@YAXXZ
text$yd	SEGMENT
??__FGROUP_FUNCTION_PARAM_RX@Const@LimeReport@@YAXXZ PROC ; LimeReport::Const::`dynamic atexit destructor for 'GROUP_FUNCTION_PARAM_RX'', COMDAT
	mov	eax, DWORD PTR ?GROUP_FUNCTION_PARAM_RX@Const@LimeReport@@3VQString@@B
	mov	ecx, DWORD PTR [eax]
	test	ecx, ecx
	je	SHORT $LN28@dynamic
	cmp	ecx, -1
	je	SHORT $LN4@dynamic
	or	ecx, -1
	lock	 xadd	 DWORD PTR [eax], ecx
	setne	al
	test	al, al
	jne	SHORT $LN4@dynamic
	mov	eax, DWORD PTR ?GROUP_FUNCTION_PARAM_RX@Const@LimeReport@@3VQString@@B
$LN28@dynamic:
	push	4
	push	2
	push	eax
	call	?deallocate@QArrayData@@SAXPAU1@II@Z	; QArrayData::deallocate
	add	esp, 12					; 0000000cH
$LN4@dynamic:
	ret	0
??__FGROUP_FUNCTION_PARAM_RX@Const@LimeReport@@YAXXZ ENDP ; LimeReport::Const::`dynamic atexit destructor for 'GROUP_FUNCTION_PARAM_RX''
text$yd	ENDS
; Function compile flags: /Ogtpy
;	COMDAT ??__EGROUP_FUNCTION_RX@Const@LimeReport@@YAXXZ
text$di	SEGMENT
$T2 = -16						; size = 4
__$EHRec$ = -12						; size = 12
??__EGROUP_FUNCTION_RX@Const@LimeReport@@YAXXZ PROC	; LimeReport::Const::`dynamic initializer for 'GROUP_FUNCTION_RX'', COMDAT
; File e:\qt512\qt5.12.0\5.9.1\win32_static\include\lrglobal.h
; Line 86
	push	ebp
	mov	ebp, esp
	push	-1
	push	__ehhandler$??__EGROUP_FUNCTION_RX@Const@LimeReport@@YAXXZ
	mov	eax, DWORD PTR fs:0
	push	eax
	push	ecx
	mov	eax, DWORD PTR ___security_cookie
	xor	eax, ebp
	push	eax
	lea	eax, DWORD PTR __$EHRec$[ebp]
	mov	DWORD PTR fs:0, eax
	push	OFFSET ?GROUP_FUNCTION_PARAM_RX@Const@LimeReport@@3VQString@@B
	lea	eax, DWORD PTR $T2[ebp]
	push	OFFSET ??_C@_06ONOGPIPC@?$CI?$CF1?2s?$CK?$AA@
	push	eax
	call	??H@YA?BVQString@@PBDABV0@@Z		; operator+
	push	OFFSET ??_C@_01PKGAHCOL@?$CJ?$AA@
	push	eax
	push	OFFSET ?GROUP_FUNCTION_RX@Const@LimeReport@@3VQString@@B
	mov	DWORD PTR __$EHRec$[ebp+8], 0
	call	??H@YA?BVQString@@ABV0@PBD@Z		; operator+
	mov	eax, DWORD PTR $T2[ebp]
	add	esp, 24					; 00000018H
	mov	ecx, DWORD PTR [eax]
	test	ecx, ecx
	je	SHORT $LN29@dynamic
	cmp	ecx, -1
	je	SHORT $LN5@dynamic
	or	ecx, -1
	lock	 xadd	 DWORD PTR [eax], ecx
	setne	al
	test	al, al
	jne	SHORT $LN5@dynamic
	mov	eax, DWORD PTR $T2[ebp]
$LN29@dynamic:
	push	4
	push	2
	push	eax
	call	?deallocate@QArrayData@@SAXPAU1@II@Z	; QArrayData::deallocate
	add	esp, 12					; 0000000cH
$LN5@dynamic:
	push	OFFSET ??__FGROUP_FUNCTION_RX@Const@LimeReport@@YAXXZ ; LimeReport::Const::`dynamic atexit destructor for 'GROUP_FUNCTION_RX''
	call	_atexit
	add	esp, 4
	mov	ecx, DWORD PTR __$EHRec$[ebp]
	mov	DWORD PTR fs:0, ecx
	pop	ecx
	mov	esp, ebp
	pop	ebp
	ret	0
text$di	ENDS
;	COMDAT text$x
text$x	SEGMENT
__unwindfunclet$??__EGROUP_FUNCTION_RX@Const@LimeReport@@YAXXZ$0:
	lea	ecx, DWORD PTR $T2[ebp]
	jmp	??1QString@@QAE@XZ			; QString::~QString
__ehhandler$??__EGROUP_FUNCTION_RX@Const@LimeReport@@YAXXZ:
	mov	edx, DWORD PTR [esp+8]
	lea	eax, DWORD PTR [edx+12]
	mov	ecx, DWORD PTR [edx-8]
	xor	ecx, eax
	call	@__security_check_cookie@4
	mov	eax, OFFSET __ehfuncinfo$??__EGROUP_FUNCTION_RX@Const@LimeReport@@YAXXZ
	jmp	___CxxFrameHandler3
text$x	ENDS
??__EGROUP_FUNCTION_RX@Const@LimeReport@@YAXXZ ENDP	; LimeReport::Const::`dynamic initializer for 'GROUP_FUNCTION_RX''
; Function compile flags: /Ogtpy
;	COMDAT ??__FGROUP_FUNCTION_RX@Const@LimeReport@@YAXXZ
text$yd	SEGMENT
??__FGROUP_FUNCTION_RX@Const@LimeReport@@YAXXZ PROC	; LimeReport::Const::`dynamic atexit destructor for 'GROUP_FUNCTION_RX'', COMDAT
	mov	eax, DWORD PTR ?GROUP_FUNCTION_RX@Const@LimeReport@@3VQString@@B
	mov	ecx, DWORD PTR [eax]
	test	ecx, ecx
	je	SHORT $LN28@dynamic
	cmp	ecx, -1
	je	SHORT $LN4@dynamic
	or	ecx, -1
	lock	 xadd	 DWORD PTR [eax], ecx
	setne	al
	test	al, al
	jne	SHORT $LN4@dynamic
	mov	eax, DWORD PTR ?GROUP_FUNCTION_RX@Const@LimeReport@@3VQString@@B
$LN28@dynamic:
	push	4
	push	2
	push	eax
	call	?deallocate@QArrayData@@SAXPAU1@II@Z	; QArrayData::deallocate
	add	esp, 12					; 0000000cH
$LN4@dynamic:
	ret	0
??__FGROUP_FUNCTION_RX@Const@LimeReport@@YAXXZ ENDP	; LimeReport::Const::`dynamic atexit destructor for 'GROUP_FUNCTION_RX''
text$yd	ENDS
; Function compile flags: /Ogtpy
;	COMDAT ??__EGROUP_FUNCTION_NAME_RX@Const@LimeReport@@YAXXZ
text$di	SEGMENT
??__EGROUP_FUNCTION_NAME_RX@Const@LimeReport@@YAXXZ PROC ; LimeReport::Const::`dynamic initializer for 'GROUP_FUNCTION_NAME_RX'', COMDAT
; File e:\qt512\qt5.12.0\5.9.1\win32_static\include\lrglobal.h
; Line 87
	push	18					; 00000012H
	push	OFFSET ??_C@_0BD@FJCKFNDJ@?$CF1?2s?$CK?2?$CI?$CI?4?$CK?$FL?$FO?2?$CJ?$FN?$CJ?2?$CJ?$AA@
	call	?fromAscii_helper@QString@@CAPAU?$QTypedArrayData@G@@PBDH@Z ; QString::fromAscii_helper
	push	OFFSET ??__FGROUP_FUNCTION_NAME_RX@Const@LimeReport@@YAXXZ ; LimeReport::Const::`dynamic atexit destructor for 'GROUP_FUNCTION_NAME_RX''
	mov	DWORD PTR ?GROUP_FUNCTION_NAME_RX@Const@LimeReport@@3VQString@@B, eax
	call	_atexit
	add	esp, 12					; 0000000cH
	ret	0
??__EGROUP_FUNCTION_NAME_RX@Const@LimeReport@@YAXXZ ENDP ; LimeReport::Const::`dynamic initializer for 'GROUP_FUNCTION_NAME_RX''
text$di	ENDS
; Function compile flags: /Ogtpy
;	COMDAT ??__FGROUP_FUNCTION_NAME_RX@Const@LimeReport@@YAXXZ
text$yd	SEGMENT
??__FGROUP_FUNCTION_NAME_RX@Const@LimeReport@@YAXXZ PROC ; LimeReport::Const::`dynamic atexit destructor for 'GROUP_FUNCTION_NAME_RX'', COMDAT
	mov	eax, DWORD PTR ?GROUP_FUNCTION_NAME_RX@Const@LimeReport@@3VQString@@B
	mov	ecx, DWORD PTR [eax]
	test	ecx, ecx
	je	SHORT $LN28@dynamic
	cmp	ecx, -1
	je	SHORT $LN4@dynamic
	or	ecx, -1
	lock	 xadd	 DWORD PTR [eax], ecx
	setne	al
	test	al, al
	jne	SHORT $LN4@dynamic
	mov	eax, DWORD PTR ?GROUP_FUNCTION_NAME_RX@Const@LimeReport@@3VQString@@B
$LN28@dynamic:
	push	4
	push	2
	push	eax
	call	?deallocate@QArrayData@@SAXPAU1@II@Z	; QArrayData::deallocate
	add	esp, 12					; 0000000cH
$LN4@dynamic:
	ret	0
??__FGROUP_FUNCTION_NAME_RX@Const@LimeReport@@YAXXZ ENDP ; LimeReport::Const::`dynamic atexit destructor for 'GROUP_FUNCTION_NAME_RX''
text$yd	ENDS
; Function compile flags: /Ogtpy
;	COMDAT ??__EFUNCTION_MANAGER_NAME@Const@LimeReport@@YAXXZ
text$di	SEGMENT
??__EFUNCTION_MANAGER_NAME@Const@LimeReport@@YAXXZ PROC	; LimeReport::Const::`dynamic initializer for 'FUNCTION_MANAGER_NAME'', COMDAT
; File e:\qt512\qt5.12.0\5.9.1\win32_static\include\lrglobal.h
; Line 89
	push	10					; 0000000aH
	push	OFFSET ??_C@_0L@DKDNEDIM@LimeReport?$AA@
	call	?fromAscii_helper@QString@@CAPAU?$QTypedArrayData@G@@PBDH@Z ; QString::fromAscii_helper
	push	OFFSET ??__FFUNCTION_MANAGER_NAME@Const@LimeReport@@YAXXZ ; LimeReport::Const::`dynamic atexit destructor for 'FUNCTION_MANAGER_NAME''
	mov	DWORD PTR ?FUNCTION_MANAGER_NAME@Const@LimeReport@@3VQString@@B, eax
	call	_atexit
	add	esp, 12					; 0000000cH
	ret	0
??__EFUNCTION_MANAGER_NAME@Const@LimeReport@@YAXXZ ENDP	; LimeReport::Const::`dynamic initializer for 'FUNCTION_MANAGER_NAME''
text$di	ENDS
; Function compile flags: /Ogtpy
;	COMDAT ??__FFUNCTION_MANAGER_NAME@Const@LimeReport@@YAXXZ
text$yd	SEGMENT
??__FFUNCTION_MANAGER_NAME@Const@LimeReport@@YAXXZ PROC	; LimeReport::Const::`dynamic atexit destructor for 'FUNCTION_MANAGER_NAME'', COMDAT
	mov	eax, DWORD PTR ?FUNCTION_MANAGER_NAME@Const@LimeReport@@3VQString@@B
	mov	ecx, DWORD PTR [eax]
	test	ecx, ecx
	je	SHORT $LN28@dynamic
	cmp	ecx, -1
	je	SHORT $LN4@dynamic
	or	ecx, -1
	lock	 xadd	 DWORD PTR [eax], ecx
	setne	al
	test	al, al
	jne	SHORT $LN4@dynamic
	mov	eax, DWORD PTR ?FUNCTION_MANAGER_NAME@Const@LimeReport@@3VQString@@B
$LN28@dynamic:
	push	4
	push	2
	push	eax
	call	?deallocate@QArrayData@@SAXPAU1@II@Z	; QArrayData::deallocate
	add	esp, 12					; 0000000cH
$LN4@dynamic:
	ret	0
??__FFUNCTION_MANAGER_NAME@Const@LimeReport@@YAXXZ ENDP	; LimeReport::Const::`dynamic atexit destructor for 'FUNCTION_MANAGER_NAME''
text$yd	ENDS
; Function compile flags: /Ogtpy
;	COMDAT ??__EDATAFUNCTIONS_MANAGER_NAME@Const@LimeReport@@YAXXZ
text$di	SEGMENT
??__EDATAFUNCTIONS_MANAGER_NAME@Const@LimeReport@@YAXXZ PROC ; LimeReport::Const::`dynamic initializer for 'DATAFUNCTIONS_MANAGER_NAME'', COMDAT
; File e:\qt512\qt5.12.0\5.9.1\win32_static\include\lrglobal.h
; Line 90
	push	19					; 00000013H
	push	OFFSET ??_C@_0BE@FMMBJPIH@DatasourceFunctions?$AA@
	call	?fromAscii_helper@QString@@CAPAU?$QTypedArrayData@G@@PBDH@Z ; QString::fromAscii_helper
	push	OFFSET ??__FDATAFUNCTIONS_MANAGER_NAME@Const@LimeReport@@YAXXZ ; LimeReport::Const::`dynamic atexit destructor for 'DATAFUNCTIONS_MANAGER_NAME''
	mov	DWORD PTR ?DATAFUNCTIONS_MANAGER_NAME@Const@LimeReport@@3VQString@@B, eax
	call	_atexit
	add	esp, 12					; 0000000cH
	ret	0
??__EDATAFUNCTIONS_MANAGER_NAME@Const@LimeReport@@YAXXZ ENDP ; LimeReport::Const::`dynamic initializer for 'DATAFUNCTIONS_MANAGER_NAME''
text$di	ENDS
; Function compile flags: /Ogtpy
;	COMDAT ??__FDATAFUNCTIONS_MANAGER_NAME@Const@LimeReport@@YAXXZ
text$yd	SEGMENT
??__FDATAFUNCTIONS_MANAGER_NAME@Const@LimeReport@@YAXXZ PROC ; LimeReport::Const::`dynamic atexit destructor for 'DATAFUNCTIONS_MANAGER_NAME'', COMDAT
	mov	eax, DWORD PTR ?DATAFUNCTIONS_MANAGER_NAME@Const@LimeReport@@3VQString@@B
	mov	ecx, DWORD PTR [eax]
	test	ecx, ecx
	je	SHORT $LN28@dynamic
	cmp	ecx, -1
	je	SHORT $LN4@dynamic
	or	ecx, -1
	lock	 xadd	 DWORD PTR [eax], ecx
	setne	al
	test	al, al
	jne	SHORT $LN4@dynamic
	mov	eax, DWORD PTR ?DATAFUNCTIONS_MANAGER_NAME@Const@LimeReport@@3VQString@@B
$LN28@dynamic:
	push	4
	push	2
	push	eax
	call	?deallocate@QArrayData@@SAXPAU1@II@Z	; QArrayData::deallocate
	add	esp, 12					; 0000000cH
$LN4@dynamic:
	ret	0
??__FDATAFUNCTIONS_MANAGER_NAME@Const@LimeReport@@YAXXZ ENDP ; LimeReport::Const::`dynamic atexit destructor for 'DATAFUNCTIONS_MANAGER_NAME''
text$yd	ENDS
; Function compile flags: /Ogtpy
;	COMDAT ??__EEOW@Const@LimeReport@@YAXXZ
text$di	SEGMENT
??__EEOW@Const@LimeReport@@YAXXZ PROC			; LimeReport::Const::`dynamic initializer for 'EOW'', COMDAT
; File e:\qt512\qt5.12.0\5.9.1\win32_static\include\lrglobal.h
; Line 91
	push	29					; 0000001dH
	push	OFFSET ??_C@_0BO@INEJEEOG@?$HO?$CB?$EA?$CD$?$CF?$FO?$CG?$CK?$CI?$CJ?$CL?$HL?$HN?$HM?3?$CC?$DM?$DO?$DP?0?1?$DL?8?$FL?$FN?2?9?$DN?$AA@
	call	?fromAscii_helper@QString@@CAPAU?$QTypedArrayData@G@@PBDH@Z ; QString::fromAscii_helper
	push	OFFSET ??__FEOW@Const@LimeReport@@YAXXZ	; LimeReport::Const::`dynamic atexit destructor for 'EOW''
	mov	DWORD PTR ?EOW@Const@LimeReport@@3VQString@@B, eax
	call	_atexit
	add	esp, 12					; 0000000cH
	ret	0
??__EEOW@Const@LimeReport@@YAXXZ ENDP			; LimeReport::Const::`dynamic initializer for 'EOW''
text$di	ENDS
; Function compile flags: /Ogtpy
;	COMDAT ??__FEOW@Const@LimeReport@@YAXXZ
text$yd	SEGMENT
??__FEOW@Const@LimeReport@@YAXXZ PROC			; LimeReport::Const::`dynamic atexit destructor for 'EOW'', COMDAT
	mov	eax, DWORD PTR ?EOW@Const@LimeReport@@3VQString@@B
	mov	ecx, DWORD PTR [eax]
	test	ecx, ecx
	je	SHORT $LN28@dynamic
	cmp	ecx, -1
	je	SHORT $LN4@dynamic
	or	ecx, -1
	lock	 xadd	 DWORD PTR [eax], ecx
	setne	al
	test	al, al
	jne	SHORT $LN4@dynamic
	mov	eax, DWORD PTR ?EOW@Const@LimeReport@@3VQString@@B
$LN28@dynamic:
	push	4
	push	2
	push	eax
	call	?deallocate@QArrayData@@SAXPAU1@II@Z	; QArrayData::deallocate
	add	esp, 12					; 0000000cH
$LN4@dynamic:
	ret	0
??__FEOW@Const@LimeReport@@YAXXZ ENDP			; LimeReport::Const::`dynamic atexit destructor for 'EOW''
text$yd	ENDS
; Function compile flags: /Ogtpy
;	COMDAT ?ActionTriggered@ActionReceiver@@AAE_NPAVQObject@@@Z
_TEXT	SEGMENT
_thread$2 = -24						; size = 8
__$EHRec$ = -12						; size = 12
_st$ = 8						; size = 4
_act$ = 8						; size = 4
?ActionTriggered@ActionReceiver@@AAE_NPAVQObject@@@Z PROC ; ActionReceiver::ActionTriggered, COMDAT
; _this$dead$ = ecx
; File e:\developments\cadaqs\canamespace\castudio\xcross\xlang\xlang\xlibrarys\qxlibrary\qxlibrary\qxapplication.h
; Line 48
	push	ebp
	mov	ebp, esp
	push	-1
	push	__ehhandler$?ActionTriggered@ActionReceiver@@AAE_NPAVQObject@@@Z
	mov	eax, DWORD PTR fs:0
	push	eax
	sub	esp, 16					; 00000010H
	push	ebx
	push	esi
	push	edi
	mov	eax, DWORD PTR ___security_cookie
	xor	eax, ebp
	push	eax
	lea	eax, DWORD PTR __$EHRec$[ebp]
	mov	DWORD PTR fs:0, eax
; Line 50
	mov	esi, DWORD PTR _act$[ebp]
	mov	ecx, esi
	push	256					; 00000100H
	call	?userData@QObject@@QBEPAVQObjectUserData@@I@Z ; QObject::userData
	mov	ebx, eax
; Line 51
	mov	ecx, esi
	lea	eax, DWORD PTR _st$[ebp]
	push	eax
	call	?objectName@QObject@@QBE?AVQString@@XZ	; QObject::objectName
	mov	DWORD PTR __$EHRec$[ebp+8], 0
; Line 52
	test	ebx, ebx
	je	$LN23@ActionTrig
; Line 53
	cmp	DWORD PTR [ebx+4], 0
	je	$LN23@ActionTrig
; Line 54
	mov	BYTE PTR _thread$2[ebp+4], 0
	call	?currentThreadId@QThread@@SAPAXXZ	; QThread::currentThreadId
	cmp	eax, DWORD PTR ?ui_thread_id@@3PAXA	; ui_thread_id
	jne	SHORT $LN10@ActionTrig
	mov	edi, DWORD PTR ?ui_thread@@3PAVXContext@@A ; ui_thread
	jmp	SHORT $LN56@ActionTrig
$LN10@ActionTrig:
	mov	ecx, DWORD PTR ?gs_env@@3PAVXNLEnv@@A	; gs_env
	lea	edx, DWORD PTR _thread$2[ebp+4]
	push	edx
	mov	eax, DWORD PTR [ecx]
	call	DWORD PTR [eax+60]
	mov	edi, eax
$LN56@ActionTrig:
	mov	DWORD PTR _thread$2[ebp], edi
	mov	BYTE PTR __$EHRec$[ebp+8], 1
; Line 55
	mov	ecx, DWORD PTR ?methodIdent@@3PAUXIDENT@@A ; methodIdent
	mov	ebx, DWORD PTR [ebx+4]
	mov	esi, DWORD PTR ?gs_env@@3PAVXNLEnv@@A	; gs_env
	mov	ecx, DWORD PTR [ecx+1764]
	cmp	ecx, -1
	je	SHORT $LN20@ActionTrig
	mov	eax, DWORD PTR [esi]
	push	ecx
	push	ebx
	mov	ecx, esi
	call	DWORD PTR [eax+20]
	test	eax, eax
	je	SHORT $LN54@ActionTrig
	mov	edx, DWORD PTR [esi]
	mov	ecx, esi
	push	0
	push	eax
	push	ebx
	push	edi
	call	DWORD PTR [edx+304]
	test	eax, eax
	je	SHORT $LN54@ActionTrig
	mov	edx, DWORD PTR [esi]
	mov	ecx, esi
	push	eax
	call	DWORD PTR [edx+72]
$LN54@ActionTrig:
	mov	esi, DWORD PTR ?gs_env@@3PAVXNLEnv@@A	; gs_env
	mov	edi, DWORD PTR _thread$2[ebp]
$LN20@ActionTrig:
; Line 56
	mov	BYTE PTR __$EHRec$[ebp+8], 2
	cmp	BYTE PTR _thread$2[ebp+4], 0
	je	SHORT $LN23@ActionTrig
	mov	eax, DWORD PTR [esi]
	mov	ecx, esi
	push	edi
	call	DWORD PTR [eax+64]
$LN23@ActionTrig:
; Line 59
	mov	eax, DWORD PTR _st$[ebp]
	mov	ecx, DWORD PTR [eax]
	test	ecx, ecx
	je	SHORT $LN51@ActionTrig
	cmp	ecx, -1
	je	SHORT $LN52@ActionTrig
	or	ecx, -1
	lock	 xadd	 DWORD PTR [eax], ecx
	setne	al
	test	al, al
	jne	SHORT $LN52@ActionTrig
	mov	eax, DWORD PTR _st$[ebp]
$LN51@ActionTrig:
	push	4
	push	2
	push	eax
	call	?deallocate@QArrayData@@SAXPAU1@II@Z	; QArrayData::deallocate
	add	esp, 12					; 0000000cH
$LN52@ActionTrig:
	mov	al, 1
; Line 60
	mov	ecx, DWORD PTR __$EHRec$[ebp]
	mov	DWORD PTR fs:0, ecx
	pop	ecx
	pop	edi
	pop	esi
	pop	ebx
	mov	esp, ebp
	pop	ebp
	ret	4
_TEXT	ENDS
;	COMDAT text$x
text$x	SEGMENT
__unwindfunclet$?ActionTriggered@ActionReceiver@@AAE_NPAVQObject@@@Z$0:
	lea	ecx, DWORD PTR _st$[ebp]
	jmp	??1QString@@QAE@XZ			; QString::~QString
__unwindfunclet$?ActionTriggered@ActionReceiver@@AAE_NPAVQObject@@@Z$1:
	lea	ecx, DWORD PTR _thread$2[ebp]
	jmp	??1XThread@@QAE@XZ			; XThread::~XThread
__unwindfunclet$?ActionTriggered@ActionReceiver@@AAE_NPAVQObject@@@Z$2:
	call	___std_terminate
	ret	0
__ehhandler$?ActionTriggered@ActionReceiver@@AAE_NPAVQObject@@@Z:
	mov	edx, DWORD PTR [esp+8]
	lea	eax, DWORD PTR [edx+12]
	mov	ecx, DWORD PTR [edx-32]
	xor	ecx, eax
	call	@__security_check_cookie@4
	mov	eax, OFFSET __ehfuncinfo$?ActionTriggered@ActionReceiver@@AAE_NPAVQObject@@@Z
	jmp	___CxxFrameHandler3
text$x	ENDS
?ActionTriggered@ActionReceiver@@AAE_NPAVQObject@@@Z ENDP ; ActionReceiver::ActionTriggered
; Function compile flags: /Ogtpy
;	COMDAT ?tritemPressed@ActionReceiver@@AAEXPAVQTreeWidgetItem@@H@Z
_TEXT	SEGMENT
_thread$2 = -20						; size = 8
__$EHRec$ = -12						; size = 12
_item$ = 8						; size = 4
_column$ = 12						; size = 4
?tritemPressed@ActionReceiver@@AAEXPAVQTreeWidgetItem@@H@Z PROC ; ActionReceiver::tritemPressed, COMDAT
; _this$ = ecx
; File e:\developments\cadaqs\canamespace\castudio\xcross\xlang\xlang\xlibrarys\qxlibrary\qxlibrary\qxapplication.h
; Line 62
	push	ebp
	mov	ebp, esp
	push	-1
	push	__ehhandler$?tritemPressed@ActionReceiver@@AAEXPAVQTreeWidgetItem@@H@Z
	mov	eax, DWORD PTR fs:0
	push	eax
	sub	esp, 12					; 0000000cH
	push	ebx
	push	esi
	push	edi
	mov	eax, DWORD PTR ___security_cookie
	xor	eax, ebp
	push	eax
	lea	eax, DWORD PTR __$EHRec$[ebp]
	mov	DWORD PTR fs:0, eax
; Line 63
	call	?sender@QObject@@IBEPAV1@XZ		; QObject::sender
	push	eax
	mov	ecx, OFFSET ?staticMetaObject@QTreeWidget@@2UQMetaObject@@B ; QTreeWidget::staticMetaObject
	call	?cast@QMetaObject@@QBEPAVQObject@@PAV2@@Z ; QMetaObject::cast
; Line 65
	test	eax, eax
	je	$LN20@tritemPres
; Line 66
	push	256					; 00000100H
	mov	ecx, eax
	call	?userData@QObject@@QBEPAVQObjectUserData@@I@Z ; QObject::userData
	mov	ebx, eax
; Line 67
	test	ebx, ebx
	je	$LN20@tritemPres
; Line 68
	cmp	DWORD PTR [ebx+4], 0
	je	$LN20@tritemPres
; Line 69
	mov	BYTE PTR _thread$2[ebp+4], 0
	call	?currentThreadId@QThread@@SAPAXXZ	; QThread::currentThreadId
	cmp	eax, DWORD PTR ?ui_thread_id@@3PAXA	; ui_thread_id
	jne	SHORT $LN12@tritemPres
	mov	eax, DWORD PTR ?ui_thread@@3PAVXContext@@A ; ui_thread
	jmp	SHORT $LN24@tritemPres
$LN12@tritemPres:
	mov	ecx, DWORD PTR ?gs_env@@3PAVXNLEnv@@A	; gs_env
	lea	edx, DWORD PTR _thread$2[ebp+4]
	push	edx
	mov	eax, DWORD PTR [ecx]
	call	DWORD PTR [eax+60]
$LN24@tritemPres:
	mov	DWORD PTR _thread$2[ebp], eax
	mov	DWORD PTR __$EHRec$[ebp+8], 0
; Line 70
	mov	ecx, DWORD PTR ?gs_env@@3PAVXNLEnv@@A	; gs_env
	mov	eax, DWORD PTR [ecx]
	call	DWORD PTR [eax+160]
; Line 71
	mov	ecx, DWORD PTR ?gs_env@@3PAVXNLEnv@@A	; gs_env
	mov	edi, eax
	mov	eax, DWORD PTR _item$[ebp]
	cdq
	push	edx
	mov	esi, DWORD PTR [ecx]
	push	eax
	push	edi
	call	DWORD PTR [esi+96]
; Line 73
	mov	ecx, DWORD PTR ?gs_env@@3PAVXNLEnv@@A	; gs_env
	mov	eax, DWORD PTR [ecx]
	call	DWORD PTR [eax+160]
; Line 74
	mov	ecx, DWORD PTR ?gs_env@@3PAVXNLEnv@@A	; gs_env
	mov	esi, eax
	push	DWORD PTR _column$[ebp]
	push	esi
	mov	edx, DWORD PTR [ecx]
	call	DWORD PTR [edx+100]
; Line 76
	mov	eax, DWORD PTR ?methodIdent@@3PAUXIDENT@@A ; methodIdent
	push	esi
	push	edi
	push	DWORD PTR [eax+1772]
	push	DWORD PTR [ebx+4]
	push	DWORD PTR _thread$2[ebp]
	call	??$void_invoke@PAVXObject@@PAV1@@XNLEnv@@QAEXPAVXContext@@PAVXObject@@H11@Z ; XNLEnv::void_invoke<XObject *,XObject *>
; Line 78
	mov	ecx, DWORD PTR ?gs_env@@3PAVXNLEnv@@A	; gs_env
	push	edi
	mov	eax, DWORD PTR [ecx]
	call	DWORD PTR [eax+72]
; Line 79
	mov	ecx, DWORD PTR ?gs_env@@3PAVXNLEnv@@A	; gs_env
	push	esi
	mov	eax, DWORD PTR [ecx]
	call	DWORD PTR [eax+72]
; Line 80
	mov	DWORD PTR __$EHRec$[ebp+8], 1
	cmp	BYTE PTR _thread$2[ebp+4], 0
	je	SHORT $LN20@tritemPres
	mov	ecx, DWORD PTR ?gs_env@@3PAVXNLEnv@@A	; gs_env
	push	DWORD PTR _thread$2[ebp]
	mov	eax, DWORD PTR [ecx]
	call	DWORD PTR [eax+64]
$LN20@tritemPres:
; Line 83
	mov	ecx, DWORD PTR __$EHRec$[ebp]
	mov	DWORD PTR fs:0, ecx
	pop	ecx
	pop	edi
	pop	esi
	pop	ebx
	mov	esp, ebp
	pop	ebp
	ret	8
_TEXT	ENDS
;	COMDAT text$x
text$x	SEGMENT
__unwindfunclet$?tritemPressed@ActionReceiver@@AAEXPAVQTreeWidgetItem@@H@Z$0:
	lea	ecx, DWORD PTR _thread$2[ebp]
	jmp	??1XThread@@QAE@XZ			; XThread::~XThread
__unwindfunclet$?tritemPressed@ActionReceiver@@AAEXPAVQTreeWidgetItem@@H@Z$1:
	call	___std_terminate
	ret	0
__ehhandler$?tritemPressed@ActionReceiver@@AAEXPAVQTreeWidgetItem@@H@Z:
	mov	edx, DWORD PTR [esp+8]
	lea	eax, DWORD PTR [edx+12]
	mov	ecx, DWORD PTR [edx-28]
	xor	ecx, eax
	call	@__security_check_cookie@4
	mov	eax, OFFSET __ehfuncinfo$?tritemPressed@ActionReceiver@@AAEXPAVQTreeWidgetItem@@H@Z
	jmp	___CxxFrameHandler3
text$x	ENDS
?tritemPressed@ActionReceiver@@AAEXPAVQTreeWidgetItem@@H@Z ENDP ; ActionReceiver::tritemPressed
; Function compile flags: /Ogtpy
;	COMDAT ?tritemClicked@ActionReceiver@@AAEXPAVQTreeWidgetItem@@H@Z
_TEXT	SEGMENT
_thread$2 = -20						; size = 8
__$EHRec$ = -12						; size = 12
_item$ = 8						; size = 4
_column$ = 12						; size = 4
?tritemClicked@ActionReceiver@@AAEXPAVQTreeWidgetItem@@H@Z PROC ; ActionReceiver::tritemClicked, COMDAT
; _this$ = ecx
; File e:\developments\cadaqs\canamespace\castudio\xcross\xlang\xlang\xlibrarys\qxlibrary\qxlibrary\qxapplication.h
; Line 84
	push	ebp
	mov	ebp, esp
	push	-1
	push	__ehhandler$?tritemClicked@ActionReceiver@@AAEXPAVQTreeWidgetItem@@H@Z
	mov	eax, DWORD PTR fs:0
	push	eax
	sub	esp, 12					; 0000000cH
	push	ebx
	push	esi
	push	edi
	mov	eax, DWORD PTR ___security_cookie
	xor	eax, ebp
	push	eax
	lea	eax, DWORD PTR __$EHRec$[ebp]
	mov	DWORD PTR fs:0, eax
; Line 85
	call	?sender@QObject@@IBEPAV1@XZ		; QObject::sender
	push	eax
	mov	ecx, OFFSET ?staticMetaObject@QTreeWidget@@2UQMetaObject@@B ; QTreeWidget::staticMetaObject
	call	?cast@QMetaObject@@QBEPAVQObject@@PAV2@@Z ; QMetaObject::cast
; Line 87
	test	eax, eax
	je	$LN20@tritemClic
; Line 88
	push	256					; 00000100H
	mov	ecx, eax
	call	?userData@QObject@@QBEPAVQObjectUserData@@I@Z ; QObject::userData
	mov	ebx, eax
; Line 89
	test	ebx, ebx
	je	$LN20@tritemClic
; Line 90
	cmp	DWORD PTR [ebx+4], 0
	je	$LN20@tritemClic
; Line 91
	mov	BYTE PTR _thread$2[ebp+4], 0
	call	?currentThreadId@QThread@@SAPAXXZ	; QThread::currentThreadId
	cmp	eax, DWORD PTR ?ui_thread_id@@3PAXA	; ui_thread_id
	jne	SHORT $LN12@tritemClic
	mov	eax, DWORD PTR ?ui_thread@@3PAVXContext@@A ; ui_thread
	jmp	SHORT $LN24@tritemClic
$LN12@tritemClic:
	mov	ecx, DWORD PTR ?gs_env@@3PAVXNLEnv@@A	; gs_env
	lea	edx, DWORD PTR _thread$2[ebp+4]
	push	edx
	mov	eax, DWORD PTR [ecx]
	call	DWORD PTR [eax+60]
$LN24@tritemClic:
	mov	DWORD PTR _thread$2[ebp], eax
	mov	DWORD PTR __$EHRec$[ebp+8], 0
; Line 92
	mov	ecx, DWORD PTR ?gs_env@@3PAVXNLEnv@@A	; gs_env
	mov	eax, DWORD PTR [ecx]
	call	DWORD PTR [eax+160]
; Line 93
	mov	ecx, DWORD PTR ?gs_env@@3PAVXNLEnv@@A	; gs_env
	mov	edi, eax
	mov	eax, DWORD PTR _item$[ebp]
	cdq
	push	edx
	mov	esi, DWORD PTR [ecx]
	push	eax
	push	edi
	call	DWORD PTR [esi+96]
; Line 95
	mov	ecx, DWORD PTR ?gs_env@@3PAVXNLEnv@@A	; gs_env
	mov	eax, DWORD PTR [ecx]
	call	DWORD PTR [eax+160]
; Line 96
	mov	ecx, DWORD PTR ?gs_env@@3PAVXNLEnv@@A	; gs_env
	mov	esi, eax
	push	DWORD PTR _column$[ebp]
	push	esi
	mov	edx, DWORD PTR [ecx]
	call	DWORD PTR [edx+100]
; Line 98
	mov	eax, DWORD PTR ?methodIdent@@3PAUXIDENT@@A ; methodIdent
	push	esi
	push	edi
	push	DWORD PTR [eax+1780]
	push	DWORD PTR [ebx+4]
	push	DWORD PTR _thread$2[ebp]
	call	??$void_invoke@PAVXObject@@PAV1@@XNLEnv@@QAEXPAVXContext@@PAVXObject@@H11@Z ; XNLEnv::void_invoke<XObject *,XObject *>
; Line 100
	mov	ecx, DWORD PTR ?gs_env@@3PAVXNLEnv@@A	; gs_env
	push	edi
	mov	eax, DWORD PTR [ecx]
	call	DWORD PTR [eax+72]
; Line 101
	mov	ecx, DWORD PTR ?gs_env@@3PAVXNLEnv@@A	; gs_env
	push	esi
	mov	eax, DWORD PTR [ecx]
	call	DWORD PTR [eax+72]
; Line 102
	mov	DWORD PTR __$EHRec$[ebp+8], 1
	cmp	BYTE PTR _thread$2[ebp+4], 0
	je	SHORT $LN20@tritemClic
	mov	ecx, DWORD PTR ?gs_env@@3PAVXNLEnv@@A	; gs_env
	push	DWORD PTR _thread$2[ebp]
	mov	eax, DWORD PTR [ecx]
	call	DWORD PTR [eax+64]
$LN20@tritemClic:
; Line 105
	mov	ecx, DWORD PTR __$EHRec$[ebp]
	mov	DWORD PTR fs:0, ecx
	pop	ecx
	pop	edi
	pop	esi
	pop	ebx
	mov	esp, ebp
	pop	ebp
	ret	8
_TEXT	ENDS
;	COMDAT text$x
text$x	SEGMENT
__unwindfunclet$?tritemClicked@ActionReceiver@@AAEXPAVQTreeWidgetItem@@H@Z$0:
	lea	ecx, DWORD PTR _thread$2[ebp]
	jmp	??1XThread@@QAE@XZ			; XThread::~XThread
__unwindfunclet$?tritemClicked@ActionReceiver@@AAEXPAVQTreeWidgetItem@@H@Z$1:
	call	___std_terminate
	ret	0
__ehhandler$?tritemClicked@ActionReceiver@@AAEXPAVQTreeWidgetItem@@H@Z:
	mov	edx, DWORD PTR [esp+8]
	lea	eax, DWORD PTR [edx+12]
	mov	ecx, DWORD PTR [edx-28]
	xor	ecx, eax
	call	@__security_check_cookie@4
	mov	eax, OFFSET __ehfuncinfo$?tritemClicked@ActionReceiver@@AAEXPAVQTreeWidgetItem@@H@Z
	jmp	___CxxFrameHandler3
text$x	ENDS
?tritemClicked@ActionReceiver@@AAEXPAVQTreeWidgetItem@@H@Z ENDP ; ActionReceiver::tritemClicked
; Function compile flags: /Ogtpy
;	COMDAT ?tritemDoubleClicked@ActionReceiver@@AAEXPAVQTreeWidgetItem@@H@Z
_TEXT	SEGMENT
_thread$2 = -20						; size = 8
__$EHRec$ = -12						; size = 12
_item$ = 8						; size = 4
_column$ = 12						; size = 4
?tritemDoubleClicked@ActionReceiver@@AAEXPAVQTreeWidgetItem@@H@Z PROC ; ActionReceiver::tritemDoubleClicked, COMDAT
; _this$ = ecx
; File e:\developments\cadaqs\canamespace\castudio\xcross\xlang\xlang\xlibrarys\qxlibrary\qxlibrary\qxapplication.h
; Line 106
	push	ebp
	mov	ebp, esp
	push	-1
	push	__ehhandler$?tritemDoubleClicked@ActionReceiver@@AAEXPAVQTreeWidgetItem@@H@Z
	mov	eax, DWORD PTR fs:0
	push	eax
	sub	esp, 12					; 0000000cH
	push	ebx
	push	esi
	push	edi
	mov	eax, DWORD PTR ___security_cookie
	xor	eax, ebp
	push	eax
	lea	eax, DWORD PTR __$EHRec$[ebp]
	mov	DWORD PTR fs:0, eax
; Line 107
	call	?sender@QObject@@IBEPAV1@XZ		; QObject::sender
	push	eax
	mov	ecx, OFFSET ?staticMetaObject@QTreeWidget@@2UQMetaObject@@B ; QTreeWidget::staticMetaObject
	call	?cast@QMetaObject@@QBEPAVQObject@@PAV2@@Z ; QMetaObject::cast
; Line 109
	test	eax, eax
	je	$LN20@tritemDoub
; Line 110
	push	256					; 00000100H
	mov	ecx, eax
	call	?userData@QObject@@QBEPAVQObjectUserData@@I@Z ; QObject::userData
	mov	ebx, eax
; Line 111
	test	ebx, ebx
	je	$LN20@tritemDoub
; Line 112
	cmp	DWORD PTR [ebx+4], 0
	je	$LN20@tritemDoub
; Line 113
	mov	BYTE PTR _thread$2[ebp+4], 0
	call	?currentThreadId@QThread@@SAPAXXZ	; QThread::currentThreadId
	cmp	eax, DWORD PTR ?ui_thread_id@@3PAXA	; ui_thread_id
	jne	SHORT $LN12@tritemDoub
	mov	eax, DWORD PTR ?ui_thread@@3PAVXContext@@A ; ui_thread
	jmp	SHORT $LN24@tritemDoub
$LN12@tritemDoub:
	mov	ecx, DWORD PTR ?gs_env@@3PAVXNLEnv@@A	; gs_env
	lea	edx, DWORD PTR _thread$2[ebp+4]
	push	edx
	mov	eax, DWORD PTR [ecx]
	call	DWORD PTR [eax+60]
$LN24@tritemDoub:
	mov	DWORD PTR _thread$2[ebp], eax
	mov	DWORD PTR __$EHRec$[ebp+8], 0
; Line 114
	mov	ecx, DWORD PTR ?gs_env@@3PAVXNLEnv@@A	; gs_env
	mov	eax, DWORD PTR [ecx]
	call	DWORD PTR [eax+160]
; Line 115
	mov	ecx, DWORD PTR ?gs_env@@3PAVXNLEnv@@A	; gs_env
	mov	edi, eax
	mov	eax, DWORD PTR _item$[ebp]
	cdq
	push	edx
	mov	esi, DWORD PTR [ecx]
	push	eax
	push	edi
	call	DWORD PTR [esi+96]
; Line 117
	mov	ecx, DWORD PTR ?gs_env@@3PAVXNLEnv@@A	; gs_env
	mov	eax, DWORD PTR [ecx]
	call	DWORD PTR [eax+160]
; Line 118
	mov	ecx, DWORD PTR ?gs_env@@3PAVXNLEnv@@A	; gs_env
	mov	esi, eax
	push	DWORD PTR _column$[ebp]
	push	esi
	mov	edx, DWORD PTR [ecx]
	call	DWORD PTR [edx+100]
; Line 120
	mov	eax, DWORD PTR ?methodIdent@@3PAUXIDENT@@A ; methodIdent
	push	esi
	push	edi
	push	DWORD PTR [eax+1788]
	push	DWORD PTR [ebx+4]
	push	DWORD PTR _thread$2[ebp]
	call	??$void_invoke@PAVXObject@@PAV1@@XNLEnv@@QAEXPAVXContext@@PAVXObject@@H11@Z ; XNLEnv::void_invoke<XObject *,XObject *>
; Line 122
	mov	ecx, DWORD PTR ?gs_env@@3PAVXNLEnv@@A	; gs_env
	push	edi
	mov	eax, DWORD PTR [ecx]
	call	DWORD PTR [eax+72]
; Line 123
	mov	ecx, DWORD PTR ?gs_env@@3PAVXNLEnv@@A	; gs_env
	push	esi
	mov	eax, DWORD PTR [ecx]
	call	DWORD PTR [eax+72]
; Line 124
	mov	DWORD PTR __$EHRec$[ebp+8], 1
	cmp	BYTE PTR _thread$2[ebp+4], 0
	je	SHORT $LN20@tritemDoub
	mov	ecx, DWORD PTR ?gs_env@@3PAVXNLEnv@@A	; gs_env
	push	DWORD PTR _thread$2[ebp]
	mov	eax, DWORD PTR [ecx]
	call	DWORD PTR [eax+64]
$LN20@tritemDoub:
; Line 127
	mov	ecx, DWORD PTR __$EHRec$[ebp]
	mov	DWORD PTR fs:0, ecx
	pop	ecx
	pop	edi
	pop	esi
	pop	ebx
	mov	esp, ebp
	pop	ebp
	ret	8
_TEXT	ENDS
;	COMDAT text$x
text$x	SEGMENT
__unwindfunclet$?tritemDoubleClicked@ActionReceiver@@AAEXPAVQTreeWidgetItem@@H@Z$0:
	lea	ecx, DWORD PTR _thread$2[ebp]
	jmp	??1XThread@@QAE@XZ			; XThread::~XThread
__unwindfunclet$?tritemDoubleClicked@ActionReceiver@@AAEXPAVQTreeWidgetItem@@H@Z$1:
	call	___std_terminate
	ret	0
__ehhandler$?tritemDoubleClicked@ActionReceiver@@AAEXPAVQTreeWidgetItem@@H@Z:
	mov	edx, DWORD PTR [esp+8]
	lea	eax, DWORD PTR [edx+12]
	mov	ecx, DWORD PTR [edx-28]
	xor	ecx, eax
	call	@__security_check_cookie@4
	mov	eax, OFFSET __ehfuncinfo$?tritemDoubleClicked@ActionReceiver@@AAEXPAVQTreeWidgetItem@@H@Z
	jmp	___CxxFrameHandler3
text$x	ENDS
?tritemDoubleClicked@ActionReceiver@@AAEXPAVQTreeWidgetItem@@H@Z ENDP ; ActionReceiver::tritemDoubleClicked
; Function compile flags: /Ogtpy
;	COMDAT ?tritemActivated@ActionReceiver@@AAEXPAVQTreeWidgetItem@@H@Z
_TEXT	SEGMENT
_thread$2 = -20						; size = 8
__$EHRec$ = -12						; size = 12
_item$ = 8						; size = 4
_column$ = 12						; size = 4
?tritemActivated@ActionReceiver@@AAEXPAVQTreeWidgetItem@@H@Z PROC ; ActionReceiver::tritemActivated, COMDAT
; _this$ = ecx
; File e:\developments\cadaqs\canamespace\castudio\xcross\xlang\xlang\xlibrarys\qxlibrary\qxlibrary\qxapplication.h
; Line 128
	push	ebp
	mov	ebp, esp
	push	-1
	push	__ehhandler$?tritemActivated@ActionReceiver@@AAEXPAVQTreeWidgetItem@@H@Z
	mov	eax, DWORD PTR fs:0
	push	eax
	sub	esp, 12					; 0000000cH
	push	ebx
	push	esi
	push	edi
	mov	eax, DWORD PTR ___security_cookie
	xor	eax, ebp
	push	eax
	lea	eax, DWORD PTR __$EHRec$[ebp]
	mov	DWORD PTR fs:0, eax
; Line 129
	call	?sender@QObject@@IBEPAV1@XZ		; QObject::sender
	push	eax
	mov	ecx, OFFSET ?staticMetaObject@QTreeWidget@@2UQMetaObject@@B ; QTreeWidget::staticMetaObject
	call	?cast@QMetaObject@@QBEPAVQObject@@PAV2@@Z ; QMetaObject::cast
; Line 131
	test	eax, eax
	je	$LN20@tritemActi
; Line 132
	push	256					; 00000100H
	mov	ecx, eax
	call	?userData@QObject@@QBEPAVQObjectUserData@@I@Z ; QObject::userData
	mov	ebx, eax
; Line 133
	test	ebx, ebx
	je	$LN20@tritemActi
; Line 134
	cmp	DWORD PTR [ebx+4], 0
	je	$LN20@tritemActi
; Line 135
	mov	BYTE PTR _thread$2[ebp+4], 0
	call	?currentThreadId@QThread@@SAPAXXZ	; QThread::currentThreadId
	cmp	eax, DWORD PTR ?ui_thread_id@@3PAXA	; ui_thread_id
	jne	SHORT $LN12@tritemActi
	mov	eax, DWORD PTR ?ui_thread@@3PAVXContext@@A ; ui_thread
	jmp	SHORT $LN24@tritemActi
$LN12@tritemActi:
	mov	ecx, DWORD PTR ?gs_env@@3PAVXNLEnv@@A	; gs_env
	lea	edx, DWORD PTR _thread$2[ebp+4]
	push	edx
	mov	eax, DWORD PTR [ecx]
	call	DWORD PTR [eax+60]
$LN24@tritemActi:
	mov	DWORD PTR _thread$2[ebp], eax
	mov	DWORD PTR __$EHRec$[ebp+8], 0
; Line 136
	mov	ecx, DWORD PTR ?gs_env@@3PAVXNLEnv@@A	; gs_env
	mov	eax, DWORD PTR [ecx]
	call	DWORD PTR [eax+160]
; Line 137
	mov	ecx, DWORD PTR ?gs_env@@3PAVXNLEnv@@A	; gs_env
	mov	edi, eax
	mov	eax, DWORD PTR _item$[ebp]
	cdq
	push	edx
	mov	esi, DWORD PTR [ecx]
	push	eax
	push	edi
	call	DWORD PTR [esi+96]
; Line 139
	mov	ecx, DWORD PTR ?gs_env@@3PAVXNLEnv@@A	; gs_env
	mov	eax, DWORD PTR [ecx]
	call	DWORD PTR [eax+160]
; Line 140
	mov	ecx, DWORD PTR ?gs_env@@3PAVXNLEnv@@A	; gs_env
	mov	esi, eax
	push	DWORD PTR _column$[ebp]
	push	esi
	mov	edx, DWORD PTR [ecx]
	call	DWORD PTR [edx+100]
; Line 142
	mov	eax, DWORD PTR ?methodIdent@@3PAUXIDENT@@A ; methodIdent
	push	esi
	push	edi
	push	DWORD PTR [eax+1796]
	push	DWORD PTR [ebx+4]
	push	DWORD PTR _thread$2[ebp]
	call	??$void_invoke@PAVXObject@@PAV1@@XNLEnv@@QAEXPAVXContext@@PAVXObject@@H11@Z ; XNLEnv::void_invoke<XObject *,XObject *>
; Line 144
	mov	ecx, DWORD PTR ?gs_env@@3PAVXNLEnv@@A	; gs_env
	push	edi
	mov	eax, DWORD PTR [ecx]
	call	DWORD PTR [eax+72]
; Line 145
	mov	ecx, DWORD PTR ?gs_env@@3PAVXNLEnv@@A	; gs_env
	push	esi
	mov	eax, DWORD PTR [ecx]
	call	DWORD PTR [eax+72]
; Line 146
	mov	DWORD PTR __$EHRec$[ebp+8], 1
	cmp	BYTE PTR _thread$2[ebp+4], 0
	je	SHORT $LN20@tritemActi
	mov	ecx, DWORD PTR ?gs_env@@3PAVXNLEnv@@A	; gs_env
	push	DWORD PTR _thread$2[ebp]
	mov	eax, DWORD PTR [ecx]
	call	DWORD PTR [eax+64]
$LN20@tritemActi:
; Line 149
	mov	ecx, DWORD PTR __$EHRec$[ebp]
	mov	DWORD PTR fs:0, ecx
	pop	ecx
	pop	edi
	pop	esi
	pop	ebx
	mov	esp, ebp
	pop	ebp
	ret	8
_TEXT	ENDS
;	COMDAT text$x
text$x	SEGMENT
__unwindfunclet$?tritemActivated@ActionReceiver@@AAEXPAVQTreeWidgetItem@@H@Z$0:
	lea	ecx, DWORD PTR _thread$2[ebp]
	jmp	??1XThread@@QAE@XZ			; XThread::~XThread
__unwindfunclet$?tritemActivated@ActionReceiver@@AAEXPAVQTreeWidgetItem@@H@Z$1:
	call	___std_terminate
	ret	0
__ehhandler$?tritemActivated@ActionReceiver@@AAEXPAVQTreeWidgetItem@@H@Z:
	mov	edx, DWORD PTR [esp+8]
	lea	eax, DWORD PTR [edx+12]
	mov	ecx, DWORD PTR [edx-28]
	xor	ecx, eax
	call	@__security_check_cookie@4
	mov	eax, OFFSET __ehfuncinfo$?tritemActivated@ActionReceiver@@AAEXPAVQTreeWidgetItem@@H@Z
	jmp	___CxxFrameHandler3
text$x	ENDS
?tritemActivated@ActionReceiver@@AAEXPAVQTreeWidgetItem@@H@Z ENDP ; ActionReceiver::tritemActivated
; Function compile flags: /Ogtpy
;	COMDAT ?tritemEntered@ActionReceiver@@AAEXPAVQTreeWidgetItem@@H@Z
_TEXT	SEGMENT
_thread$2 = -20						; size = 8
__$EHRec$ = -12						; size = 12
_item$ = 8						; size = 4
_column$ = 12						; size = 4
?tritemEntered@ActionReceiver@@AAEXPAVQTreeWidgetItem@@H@Z PROC ; ActionReceiver::tritemEntered, COMDAT
; _this$ = ecx
; File e:\developments\cadaqs\canamespace\castudio\xcross\xlang\xlang\xlibrarys\qxlibrary\qxlibrary\qxapplication.h
; Line 150
	push	ebp
	mov	ebp, esp
	push	-1
	push	__ehhandler$?tritemEntered@ActionReceiver@@AAEXPAVQTreeWidgetItem@@H@Z
	mov	eax, DWORD PTR fs:0
	push	eax
	sub	esp, 12					; 0000000cH
	push	ebx
	push	esi
	push	edi
	mov	eax, DWORD PTR ___security_cookie
	xor	eax, ebp
	push	eax
	lea	eax, DWORD PTR __$EHRec$[ebp]
	mov	DWORD PTR fs:0, eax
; Line 151
	call	?sender@QObject@@IBEPAV1@XZ		; QObject::sender
	push	eax
	mov	ecx, OFFSET ?staticMetaObject@QTreeWidget@@2UQMetaObject@@B ; QTreeWidget::staticMetaObject
	call	?cast@QMetaObject@@QBEPAVQObject@@PAV2@@Z ; QMetaObject::cast
; Line 153
	test	eax, eax
	je	$LN20@tritemEnte
; Line 154
	push	256					; 00000100H
	mov	ecx, eax
	call	?userData@QObject@@QBEPAVQObjectUserData@@I@Z ; QObject::userData
	mov	ebx, eax
; Line 155
	test	ebx, ebx
	je	$LN20@tritemEnte
; Line 156
	cmp	DWORD PTR [ebx+4], 0
	je	$LN20@tritemEnte
; Line 157
	mov	BYTE PTR _thread$2[ebp+4], 0
	call	?currentThreadId@QThread@@SAPAXXZ	; QThread::currentThreadId
	cmp	eax, DWORD PTR ?ui_thread_id@@3PAXA	; ui_thread_id
	jne	SHORT $LN12@tritemEnte
	mov	eax, DWORD PTR ?ui_thread@@3PAVXContext@@A ; ui_thread
	jmp	SHORT $LN24@tritemEnte
$LN12@tritemEnte:
	mov	ecx, DWORD PTR ?gs_env@@3PAVXNLEnv@@A	; gs_env
	lea	edx, DWORD PTR _thread$2[ebp+4]
	push	edx
	mov	eax, DWORD PTR [ecx]
	call	DWORD PTR [eax+60]
$LN24@tritemEnte:
	mov	DWORD PTR _thread$2[ebp], eax
	mov	DWORD PTR __$EHRec$[ebp+8], 0
; Line 158
	mov	ecx, DWORD PTR ?gs_env@@3PAVXNLEnv@@A	; gs_env
	mov	eax, DWORD PTR [ecx]
	call	DWORD PTR [eax+160]
; Line 159
	mov	ecx, DWORD PTR ?gs_env@@3PAVXNLEnv@@A	; gs_env
	mov	edi, eax
	mov	eax, DWORD PTR _item$[ebp]
	cdq
	push	edx
	mov	esi, DWORD PTR [ecx]
	push	eax
	push	edi
	call	DWORD PTR [esi+96]
; Line 161
	mov	ecx, DWORD PTR ?gs_env@@3PAVXNLEnv@@A	; gs_env
	mov	eax, DWORD PTR [ecx]
	call	DWORD PTR [eax+160]
; Line 162
	mov	ecx, DWORD PTR ?gs_env@@3PAVXNLEnv@@A	; gs_env
	mov	esi, eax
	push	DWORD PTR _column$[ebp]
	push	esi
	mov	edx, DWORD PTR [ecx]
	call	DWORD PTR [edx+100]
; Line 164
	mov	eax, DWORD PTR ?methodIdent@@3PAUXIDENT@@A ; methodIdent
	push	esi
	push	edi
	push	DWORD PTR [eax+1804]
	push	DWORD PTR [ebx+4]
	push	DWORD PTR _thread$2[ebp]
	call	??$void_invoke@PAVXObject@@PAV1@@XNLEnv@@QAEXPAVXContext@@PAVXObject@@H11@Z ; XNLEnv::void_invoke<XObject *,XObject *>
; Line 166
	mov	ecx, DWORD PTR ?gs_env@@3PAVXNLEnv@@A	; gs_env
	push	edi
	mov	eax, DWORD PTR [ecx]
	call	DWORD PTR [eax+72]
; Line 167
	mov	ecx, DWORD PTR ?gs_env@@3PAVXNLEnv@@A	; gs_env
	push	esi
	mov	eax, DWORD PTR [ecx]
	call	DWORD PTR [eax+72]
; Line 168
	mov	DWORD PTR __$EHRec$[ebp+8], 1
	cmp	BYTE PTR _thread$2[ebp+4], 0
	je	SHORT $LN20@tritemEnte
	mov	ecx, DWORD PTR ?gs_env@@3PAVXNLEnv@@A	; gs_env
	push	DWORD PTR _thread$2[ebp]
	mov	eax, DWORD PTR [ecx]
	call	DWORD PTR [eax+64]
$LN20@tritemEnte:
; Line 171
	mov	ecx, DWORD PTR __$EHRec$[ebp]
	mov	DWORD PTR fs:0, ecx
	pop	ecx
	pop	edi
	pop	esi
	pop	ebx
	mov	esp, ebp
	pop	ebp
	ret	8
_TEXT	ENDS
;	COMDAT text$x
text$x	SEGMENT
__unwindfunclet$?tritemEntered@ActionReceiver@@AAEXPAVQTreeWidgetItem@@H@Z$0:
	lea	ecx, DWORD PTR _thread$2[ebp]
	jmp	??1XThread@@QAE@XZ			; XThread::~XThread
__unwindfunclet$?tritemEntered@ActionReceiver@@AAEXPAVQTreeWidgetItem@@H@Z$1:
	call	___std_terminate
	ret	0
__ehhandler$?tritemEntered@ActionReceiver@@AAEXPAVQTreeWidgetItem@@H@Z:
	mov	edx, DWORD PTR [esp+8]
	lea	eax, DWORD PTR [edx+12]
	mov	ecx, DWORD PTR [edx-28]
	xor	ecx, eax
	call	@__security_check_cookie@4
	mov	eax, OFFSET __ehfuncinfo$?tritemEntered@ActionReceiver@@AAEXPAVQTreeWidgetItem@@H@Z
	jmp	___CxxFrameHandler3
text$x	ENDS
?tritemEntered@ActionReceiver@@AAEXPAVQTreeWidgetItem@@H@Z ENDP ; ActionReceiver::tritemEntered
; Function compile flags: /Ogtpy
;	COMDAT ?tritemChanged@ActionReceiver@@AAEXPAVQTreeWidgetItem@@H@Z
_TEXT	SEGMENT
_thread$2 = -20						; size = 8
__$EHRec$ = -12						; size = 12
_item$ = 8						; size = 4
_column$ = 12						; size = 4
?tritemChanged@ActionReceiver@@AAEXPAVQTreeWidgetItem@@H@Z PROC ; ActionReceiver::tritemChanged, COMDAT
; _this$ = ecx
; File e:\developments\cadaqs\canamespace\castudio\xcross\xlang\xlang\xlibrarys\qxlibrary\qxlibrary\qxapplication.h
; Line 172
	push	ebp
	mov	ebp, esp
	push	-1
	push	__ehhandler$?tritemChanged@ActionReceiver@@AAEXPAVQTreeWidgetItem@@H@Z
	mov	eax, DWORD PTR fs:0
	push	eax
	sub	esp, 12					; 0000000cH
	push	ebx
	push	esi
	push	edi
	mov	eax, DWORD PTR ___security_cookie
	xor	eax, ebp
	push	eax
	lea	eax, DWORD PTR __$EHRec$[ebp]
	mov	DWORD PTR fs:0, eax
; Line 173
	call	?sender@QObject@@IBEPAV1@XZ		; QObject::sender
	push	eax
	mov	ecx, OFFSET ?staticMetaObject@QTreeWidget@@2UQMetaObject@@B ; QTreeWidget::staticMetaObject
	call	?cast@QMetaObject@@QBEPAVQObject@@PAV2@@Z ; QMetaObject::cast
; Line 175
	test	eax, eax
	je	$LN20@tritemChan
; Line 176
	push	256					; 00000100H
	mov	ecx, eax
	call	?userData@QObject@@QBEPAVQObjectUserData@@I@Z ; QObject::userData
	mov	ebx, eax
; Line 177
	test	ebx, ebx
	je	$LN20@tritemChan
; Line 178
	cmp	DWORD PTR [ebx+4], 0
	je	$LN20@tritemChan
; Line 179
	mov	BYTE PTR _thread$2[ebp+4], 0
	call	?currentThreadId@QThread@@SAPAXXZ	; QThread::currentThreadId
	cmp	eax, DWORD PTR ?ui_thread_id@@3PAXA	; ui_thread_id
	jne	SHORT $LN12@tritemChan
	mov	eax, DWORD PTR ?ui_thread@@3PAVXContext@@A ; ui_thread
	jmp	SHORT $LN24@tritemChan
$LN12@tritemChan:
	mov	ecx, DWORD PTR ?gs_env@@3PAVXNLEnv@@A	; gs_env
	lea	edx, DWORD PTR _thread$2[ebp+4]
	push	edx
	mov	eax, DWORD PTR [ecx]
	call	DWORD PTR [eax+60]
$LN24@tritemChan:
	mov	DWORD PTR _thread$2[ebp], eax
	mov	DWORD PTR __$EHRec$[ebp+8], 0
; Line 180
	mov	ecx, DWORD PTR ?gs_env@@3PAVXNLEnv@@A	; gs_env
	mov	eax, DWORD PTR [ecx]
	call	DWORD PTR [eax+160]
; Line 181
	mov	ecx, DWORD PTR ?gs_env@@3PAVXNLEnv@@A	; gs_env
	mov	edi, eax
	mov	eax, DWORD PTR _item$[ebp]
	cdq
	push	edx
	mov	esi, DWORD PTR [ecx]
	push	eax
	push	edi
	call	DWORD PTR [esi+96]
; Line 183
	mov	ecx, DWORD PTR ?gs_env@@3PAVXNLEnv@@A	; gs_env
	mov	eax, DWORD PTR [ecx]
	call	DWORD PTR [eax+160]
; Line 184
	mov	ecx, DWORD PTR ?gs_env@@3PAVXNLEnv@@A	; gs_env
	mov	esi, eax
	push	DWORD PTR _column$[ebp]
	push	esi
	mov	edx, DWORD PTR [ecx]
	call	DWORD PTR [edx+100]
; Line 186
	mov	eax, DWORD PTR ?methodIdent@@3PAUXIDENT@@A ; methodIdent
	push	esi
	push	edi
	push	DWORD PTR [eax+1812]
	push	DWORD PTR [ebx+4]
	push	DWORD PTR _thread$2[ebp]
	call	??$void_invoke@PAVXObject@@PAV1@@XNLEnv@@QAEXPAVXContext@@PAVXObject@@H11@Z ; XNLEnv::void_invoke<XObject *,XObject *>
; Line 188
	mov	ecx, DWORD PTR ?gs_env@@3PAVXNLEnv@@A	; gs_env
	push	edi
	mov	eax, DWORD PTR [ecx]
	call	DWORD PTR [eax+72]
; Line 189
	mov	ecx, DWORD PTR ?gs_env@@3PAVXNLEnv@@A	; gs_env
	push	esi
	mov	eax, DWORD PTR [ecx]
	call	DWORD PTR [eax+72]
; Line 190
	mov	DWORD PTR __$EHRec$[ebp+8], 1
	cmp	BYTE PTR _thread$2[ebp+4], 0
	je	SHORT $LN20@tritemChan
	mov	ecx, DWORD PTR ?gs_env@@3PAVXNLEnv@@A	; gs_env
	push	DWORD PTR _thread$2[ebp]
	mov	eax, DWORD PTR [ecx]
	call	DWORD PTR [eax+64]
$LN20@tritemChan:
; Line 193
	mov	ecx, DWORD PTR __$EHRec$[ebp]
	mov	DWORD PTR fs:0, ecx
	pop	ecx
	pop	edi
	pop	esi
	pop	ebx
	mov	esp, ebp
	pop	ebp
	ret	8
_TEXT	ENDS
;	COMDAT text$x
text$x	SEGMENT
__unwindfunclet$?tritemChanged@ActionReceiver@@AAEXPAVQTreeWidgetItem@@H@Z$0:
	lea	ecx, DWORD PTR _thread$2[ebp]
	jmp	??1XThread@@QAE@XZ			; XThread::~XThread
__unwindfunclet$?tritemChanged@ActionReceiver@@AAEXPAVQTreeWidgetItem@@H@Z$1:
	call	___std_terminate
	ret	0
__ehhandler$?tritemChanged@ActionReceiver@@AAEXPAVQTreeWidgetItem@@H@Z:
	mov	edx, DWORD PTR [esp+8]
	lea	eax, DWORD PTR [edx+12]
	mov	ecx, DWORD PTR [edx-28]
	xor	ecx, eax
	call	@__security_check_cookie@4
	mov	eax, OFFSET __ehfuncinfo$?tritemChanged@ActionReceiver@@AAEXPAVQTreeWidgetItem@@H@Z
	jmp	___CxxFrameHandler3
text$x	ENDS
?tritemChanged@ActionReceiver@@AAEXPAVQTreeWidgetItem@@H@Z ENDP ; ActionReceiver::tritemChanged
; Function compile flags: /Ogtpy
;	COMDAT ?tritemExpanded@ActionReceiver@@AAEXPAVQTreeWidgetItem@@@Z
_TEXT	SEGMENT
_thread$2 = -24						; size = 8
__$EHRec$ = -12						; size = 12
_item$ = 8						; size = 4
?tritemExpanded@ActionReceiver@@AAEXPAVQTreeWidgetItem@@@Z PROC ; ActionReceiver::tritemExpanded, COMDAT
; _this$ = ecx
; File e:\developments\cadaqs\canamespace\castudio\xcross\xlang\xlang\xlibrarys\qxlibrary\qxlibrary\qxapplication.h
; Line 194
	push	ebp
	mov	ebp, esp
	push	-1
	push	__ehhandler$?tritemExpanded@ActionReceiver@@AAEXPAVQTreeWidgetItem@@@Z
	mov	eax, DWORD PTR fs:0
	push	eax
	sub	esp, 16					; 00000010H
	push	ebx
	push	esi
	push	edi
	mov	eax, DWORD PTR ___security_cookie
	xor	eax, ebp
	push	eax
	lea	eax, DWORD PTR __$EHRec$[ebp]
	mov	DWORD PTR fs:0, eax
; Line 195
	call	?sender@QObject@@IBEPAV1@XZ		; QObject::sender
	push	eax
	mov	ecx, OFFSET ?staticMetaObject@QTreeWidget@@2UQMetaObject@@B ; QTreeWidget::staticMetaObject
	call	?cast@QMetaObject@@QBEPAVQObject@@PAV2@@Z ; QMetaObject::cast
; Line 197
	test	eax, eax
	je	$LN20@tritemExpa
; Line 198
	push	256					; 00000100H
	mov	ecx, eax
	call	?userData@QObject@@QBEPAVQObjectUserData@@I@Z ; QObject::userData
	mov	ebx, eax
; Line 199
	test	ebx, ebx
	je	$LN20@tritemExpa
; Line 200
	cmp	DWORD PTR [ebx+4], 0
	je	$LN20@tritemExpa
; Line 201
	mov	BYTE PTR _thread$2[ebp+4], 0
	call	?currentThreadId@QThread@@SAPAXXZ	; QThread::currentThreadId
	cmp	eax, DWORD PTR ?ui_thread_id@@3PAXA	; ui_thread_id
	jne	SHORT $LN12@tritemExpa
	mov	eax, DWORD PTR ?ui_thread@@3PAVXContext@@A ; ui_thread
	jmp	SHORT $LN24@tritemExpa
$LN12@tritemExpa:
	mov	ecx, DWORD PTR ?gs_env@@3PAVXNLEnv@@A	; gs_env
	lea	edx, DWORD PTR _thread$2[ebp+4]
	push	edx
	mov	eax, DWORD PTR [ecx]
	call	DWORD PTR [eax+60]
$LN24@tritemExpa:
	mov	DWORD PTR _thread$2[ebp], eax
	mov	DWORD PTR __$EHRec$[ebp+8], 0
; Line 202
	mov	ecx, DWORD PTR ?gs_env@@3PAVXNLEnv@@A	; gs_env
	mov	eax, DWORD PTR [ecx]
	call	DWORD PTR [eax+160]
; Line 203
	mov	ecx, DWORD PTR ?gs_env@@3PAVXNLEnv@@A	; gs_env
	mov	edi, eax
	mov	eax, DWORD PTR _item$[ebp]
	cdq
	push	edx
	mov	esi, DWORD PTR [ecx]
	push	eax
	push	edi
	call	DWORD PTR [esi+96]
; Line 205
	mov	ecx, DWORD PTR ?gs_env@@3PAVXNLEnv@@A	; gs_env
	mov	eax, DWORD PTR [ecx]
	call	DWORD PTR [eax+160]
; Line 207
	mov	eax, DWORD PTR ?methodIdent@@3PAUXIDENT@@A ; methodIdent
	push	edi
	push	DWORD PTR [eax+1820]
	push	DWORD PTR [ebx+4]
	push	DWORD PTR _thread$2[ebp]
	call	??$void_invoke@PAVXObject@@$$V@XNLEnv@@QAEXPAVXContext@@PAVXObject@@H1@Z ; XNLEnv::void_invoke<XObject *>
; Line 209
	mov	ecx, DWORD PTR ?gs_env@@3PAVXNLEnv@@A	; gs_env
	push	edi
	mov	eax, DWORD PTR [ecx]
	call	DWORD PTR [eax+72]
; Line 210
	mov	DWORD PTR __$EHRec$[ebp+8], 1
	cmp	BYTE PTR _thread$2[ebp+4], 0
	je	SHORT $LN20@tritemExpa
	mov	ecx, DWORD PTR ?gs_env@@3PAVXNLEnv@@A	; gs_env
	push	DWORD PTR _thread$2[ebp]
	mov	eax, DWORD PTR [ecx]
	call	DWORD PTR [eax+64]
$LN20@tritemExpa:
; Line 213
	mov	ecx, DWORD PTR __$EHRec$[ebp]
	mov	DWORD PTR fs:0, ecx
	pop	ecx
	pop	edi
	pop	esi
	pop	ebx
	mov	esp, ebp
	pop	ebp
	ret	4
_TEXT	ENDS
;	COMDAT text$x
text$x	SEGMENT
__unwindfunclet$?tritemExpanded@ActionReceiver@@AAEXPAVQTreeWidgetItem@@@Z$0:
	lea	ecx, DWORD PTR _thread$2[ebp]
	jmp	??1XThread@@QAE@XZ			; XThread::~XThread
__unwindfunclet$?tritemExpanded@ActionReceiver@@AAEXPAVQTreeWidgetItem@@@Z$1:
	call	___std_terminate
	ret	0
__ehhandler$?tritemExpanded@ActionReceiver@@AAEXPAVQTreeWidgetItem@@@Z:
	mov	edx, DWORD PTR [esp+8]
	lea	eax, DWORD PTR [edx+12]
	mov	ecx, DWORD PTR [edx-32]
	xor	ecx, eax
	call	@__security_check_cookie@4
	mov	eax, OFFSET __ehfuncinfo$?tritemExpanded@ActionReceiver@@AAEXPAVQTreeWidgetItem@@@Z
	jmp	___CxxFrameHandler3
text$x	ENDS
?tritemExpanded@ActionReceiver@@AAEXPAVQTreeWidgetItem@@@Z ENDP ; ActionReceiver::tritemExpanded
; Function compile flags: /Ogtpy
;	COMDAT ?tritemCollapsed@ActionReceiver@@AAEXPAVQTreeWidgetItem@@@Z
_TEXT	SEGMENT
_thread$2 = -24						; size = 8
__$EHRec$ = -12						; size = 12
_item$ = 8						; size = 4
?tritemCollapsed@ActionReceiver@@AAEXPAVQTreeWidgetItem@@@Z PROC ; ActionReceiver::tritemCollapsed, COMDAT
; _this$ = ecx
; File e:\developments\cadaqs\canamespace\castudio\xcross\xlang\xlang\xlibrarys\qxlibrary\qxlibrary\qxapplication.h
; Line 214
	push	ebp
	mov	ebp, esp
	push	-1
	push	__ehhandler$?tritemCollapsed@ActionReceiver@@AAEXPAVQTreeWidgetItem@@@Z
	mov	eax, DWORD PTR fs:0
	push	eax
	sub	esp, 16					; 00000010H
	push	ebx
	push	esi
	push	edi
	mov	eax, DWORD PTR ___security_cookie
	xor	eax, ebp
	push	eax
	lea	eax, DWORD PTR __$EHRec$[ebp]
	mov	DWORD PTR fs:0, eax
; Line 215
	call	?sender@QObject@@IBEPAV1@XZ		; QObject::sender
	push	eax
	mov	ecx, OFFSET ?staticMetaObject@QTreeWidget@@2UQMetaObject@@B ; QTreeWidget::staticMetaObject
	call	?cast@QMetaObject@@QBEPAVQObject@@PAV2@@Z ; QMetaObject::cast
; Line 217
	test	eax, eax
	je	$LN20@tritemColl
; Line 218
	push	256					; 00000100H
	mov	ecx, eax
	call	?userData@QObject@@QBEPAVQObjectUserData@@I@Z ; QObject::userData
	mov	ebx, eax
; Line 219
	test	ebx, ebx
	je	$LN20@tritemColl
; Line 220
	cmp	DWORD PTR [ebx+4], 0
	je	$LN20@tritemColl
; Line 221
	mov	BYTE PTR _thread$2[ebp+4], 0
	call	?currentThreadId@QThread@@SAPAXXZ	; QThread::currentThreadId
	cmp	eax, DWORD PTR ?ui_thread_id@@3PAXA	; ui_thread_id
	jne	SHORT $LN12@tritemColl
	mov	eax, DWORD PTR ?ui_thread@@3PAVXContext@@A ; ui_thread
	jmp	SHORT $LN24@tritemColl
$LN12@tritemColl:
	mov	ecx, DWORD PTR ?gs_env@@3PAVXNLEnv@@A	; gs_env
	lea	edx, DWORD PTR _thread$2[ebp+4]
	push	edx
	mov	eax, DWORD PTR [ecx]
	call	DWORD PTR [eax+60]
$LN24@tritemColl:
	mov	DWORD PTR _thread$2[ebp], eax
	mov	DWORD PTR __$EHRec$[ebp+8], 0
; Line 222
	mov	ecx, DWORD PTR ?gs_env@@3PAVXNLEnv@@A	; gs_env
	mov	eax, DWORD PTR [ecx]
	call	DWORD PTR [eax+160]
; Line 223
	mov	ecx, DWORD PTR ?gs_env@@3PAVXNLEnv@@A	; gs_env
	mov	edi, eax
	mov	eax, DWORD PTR _item$[ebp]
	cdq
	push	edx
	mov	esi, DWORD PTR [ecx]
	push	eax
	push	edi
	call	DWORD PTR [esi+96]
; Line 225
	mov	ecx, DWORD PTR ?gs_env@@3PAVXNLEnv@@A	; gs_env
	mov	eax, DWORD PTR [ecx]
	call	DWORD PTR [eax+160]
; Line 227
	mov	eax, DWORD PTR ?methodIdent@@3PAUXIDENT@@A ; methodIdent
	push	edi
	push	DWORD PTR [eax+1828]
	push	DWORD PTR [ebx+4]
	push	DWORD PTR _thread$2[ebp]
	call	??$void_invoke@PAVXObject@@$$V@XNLEnv@@QAEXPAVXContext@@PAVXObject@@H1@Z ; XNLEnv::void_invoke<XObject *>
; Line 229
	mov	ecx, DWORD PTR ?gs_env@@3PAVXNLEnv@@A	; gs_env
	push	edi
	mov	eax, DWORD PTR [ecx]
	call	DWORD PTR [eax+72]
; Line 230
	mov	DWORD PTR __$EHRec$[ebp+8], 1
	cmp	BYTE PTR _thread$2[ebp+4], 0
	je	SHORT $LN20@tritemColl
	mov	ecx, DWORD PTR ?gs_env@@3PAVXNLEnv@@A	; gs_env
	push	DWORD PTR _thread$2[ebp]
	mov	eax, DWORD PTR [ecx]
	call	DWORD PTR [eax+64]
$LN20@tritemColl:
; Line 233
	mov	ecx, DWORD PTR __$EHRec$[ebp]
	mov	DWORD PTR fs:0, ecx
	pop	ecx
	pop	edi
	pop	esi
	pop	ebx
	mov	esp, ebp
	pop	ebp
	ret	4
_TEXT	ENDS
;	COMDAT text$x
text$x	SEGMENT
__unwindfunclet$?tritemCollapsed@ActionReceiver@@AAEXPAVQTreeWidgetItem@@@Z$0:
	lea	ecx, DWORD PTR _thread$2[ebp]
	jmp	??1XThread@@QAE@XZ			; XThread::~XThread
__unwindfunclet$?tritemCollapsed@ActionReceiver@@AAEXPAVQTreeWidgetItem@@@Z$1:
	call	___std_terminate
	ret	0
__ehhandler$?tritemCollapsed@ActionReceiver@@AAEXPAVQTreeWidgetItem@@@Z:
	mov	edx, DWORD PTR [esp+8]
	lea	eax, DWORD PTR [edx+12]
	mov	ecx, DWORD PTR [edx-32]
	xor	ecx, eax
	call	@__security_check_cookie@4
	mov	eax, OFFSET __ehfuncinfo$?tritemCollapsed@ActionReceiver@@AAEXPAVQTreeWidgetItem@@@Z
	jmp	___CxxFrameHandler3
text$x	ENDS
?tritemCollapsed@ActionReceiver@@AAEXPAVQTreeWidgetItem@@@Z ENDP ; ActionReceiver::tritemCollapsed
; Function compile flags: /Ogtpy
;	COMDAT ?trcurrentItemChanged@ActionReceiver@@AAEXPAVQTreeWidgetItem@@0@Z
_TEXT	SEGMENT
_thread$2 = -24						; size = 8
_objectData$1$ = -16					; size = 4
__$EHRec$ = -12						; size = 12
_current$ = 8						; size = 4
_previous$ = 12						; size = 4
?trcurrentItemChanged@ActionReceiver@@AAEXPAVQTreeWidgetItem@@0@Z PROC ; ActionReceiver::trcurrentItemChanged, COMDAT
; _this$ = ecx
; File e:\developments\cadaqs\canamespace\castudio\xcross\xlang\xlang\xlibrarys\qxlibrary\qxlibrary\qxapplication.h
; Line 234
	push	ebp
	mov	ebp, esp
	push	-1
	push	__ehhandler$?trcurrentItemChanged@ActionReceiver@@AAEXPAVQTreeWidgetItem@@0@Z
	mov	eax, DWORD PTR fs:0
	push	eax
	sub	esp, 12					; 0000000cH
	push	ebx
	push	esi
	push	edi
	mov	eax, DWORD PTR ___security_cookie
	xor	eax, ebp
	push	eax
	lea	eax, DWORD PTR __$EHRec$[ebp]
	mov	DWORD PTR fs:0, eax
; Line 235
	call	?sender@QObject@@IBEPAV1@XZ		; QObject::sender
	push	eax
	mov	ecx, OFFSET ?staticMetaObject@QTreeWidget@@2UQMetaObject@@B ; QTreeWidget::staticMetaObject
	call	?cast@QMetaObject@@QBEPAVQObject@@PAV2@@Z ; QMetaObject::cast
; Line 237
	test	eax, eax
	je	$LN20@trcurrentI
; Line 238
	push	256					; 00000100H
	mov	ecx, eax
	call	?userData@QObject@@QBEPAVQObjectUserData@@I@Z ; QObject::userData
	mov	DWORD PTR _objectData$1$[ebp], eax
; Line 239
	test	eax, eax
	je	$LN20@trcurrentI
; Line 240
	cmp	DWORD PTR [eax+4], 0
	je	$LN20@trcurrentI
; Line 241
	mov	BYTE PTR _thread$2[ebp+4], 0
	call	?currentThreadId@QThread@@SAPAXXZ	; QThread::currentThreadId
	cmp	eax, DWORD PTR ?ui_thread_id@@3PAXA	; ui_thread_id
	jne	SHORT $LN12@trcurrentI
	mov	eax, DWORD PTR ?ui_thread@@3PAVXContext@@A ; ui_thread
	jmp	SHORT $LN24@trcurrentI
$LN12@trcurrentI:
	mov	ecx, DWORD PTR ?gs_env@@3PAVXNLEnv@@A	; gs_env
	lea	edx, DWORD PTR _thread$2[ebp+4]
	push	edx
	mov	eax, DWORD PTR [ecx]
	call	DWORD PTR [eax+60]
$LN24@trcurrentI:
	mov	DWORD PTR _thread$2[ebp], eax
	mov	DWORD PTR __$EHRec$[ebp+8], 0
; Line 242
	mov	ecx, DWORD PTR ?gs_env@@3PAVXNLEnv@@A	; gs_env
	mov	eax, DWORD PTR [ecx]
	call	DWORD PTR [eax+160]
; Line 243
	mov	ecx, DWORD PTR ?gs_env@@3PAVXNLEnv@@A	; gs_env
	mov	ebx, eax
	mov	eax, DWORD PTR _current$[ebp]
	cdq
	push	edx
	mov	esi, DWORD PTR [ecx]
	push	eax
	push	ebx
	call	DWORD PTR [esi+96]
; Line 245
	mov	ecx, DWORD PTR ?gs_env@@3PAVXNLEnv@@A	; gs_env
	mov	eax, DWORD PTR [ecx]
	call	DWORD PTR [eax+160]
; Line 246
	mov	ecx, DWORD PTR ?gs_env@@3PAVXNLEnv@@A	; gs_env
	mov	edi, eax
	mov	eax, DWORD PTR _previous$[ebp]
	cdq
	push	edx
	mov	esi, DWORD PTR [ecx]
	push	eax
	push	edi
	call	DWORD PTR [esi+96]
; Line 248
	mov	eax, DWORD PTR ?methodIdent@@3PAUXIDENT@@A ; methodIdent
	push	edi
	push	ebx
	push	DWORD PTR [eax+1836]
	mov	eax, DWORD PTR _objectData$1$[ebp]
	push	DWORD PTR [eax+4]
	push	DWORD PTR _thread$2[ebp]
	call	??$void_invoke@PAVXObject@@PAV1@@XNLEnv@@QAEXPAVXContext@@PAVXObject@@H11@Z ; XNLEnv::void_invoke<XObject *,XObject *>
; Line 250
	mov	ecx, DWORD PTR ?gs_env@@3PAVXNLEnv@@A	; gs_env
	push	ebx
	mov	eax, DWORD PTR [ecx]
	call	DWORD PTR [eax+72]
; Line 251
	mov	ecx, DWORD PTR ?gs_env@@3PAVXNLEnv@@A	; gs_env
	push	edi
	mov	eax, DWORD PTR [ecx]
	call	DWORD PTR [eax+72]
; Line 252
	mov	DWORD PTR __$EHRec$[ebp+8], 1
	cmp	BYTE PTR _thread$2[ebp+4], 0
	je	SHORT $LN20@trcurrentI
	mov	ecx, DWORD PTR ?gs_env@@3PAVXNLEnv@@A	; gs_env
	push	DWORD PTR _thread$2[ebp]
	mov	eax, DWORD PTR [ecx]
	call	DWORD PTR [eax+64]
$LN20@trcurrentI:
; Line 255
	mov	ecx, DWORD PTR __$EHRec$[ebp]
	mov	DWORD PTR fs:0, ecx
	pop	ecx
	pop	edi
	pop	esi
	pop	ebx
	mov	esp, ebp
	pop	ebp
	ret	8
_TEXT	ENDS
;	COMDAT text$x
text$x	SEGMENT
__unwindfunclet$?trcurrentItemChanged@ActionReceiver@@AAEXPAVQTreeWidgetItem@@0@Z$0:
	lea	ecx, DWORD PTR _thread$2[ebp]
	jmp	??1XThread@@QAE@XZ			; XThread::~XThread
__unwindfunclet$?trcurrentItemChanged@ActionReceiver@@AAEXPAVQTreeWidgetItem@@0@Z$1:
	call	___std_terminate
	ret	0
__ehhandler$?trcurrentItemChanged@ActionReceiver@@AAEXPAVQTreeWidgetItem@@0@Z:
	mov	edx, DWORD PTR [esp+8]
	lea	eax, DWORD PTR [edx+12]
	mov	ecx, DWORD PTR [edx-28]
	xor	ecx, eax
	call	@__security_check_cookie@4
	mov	eax, OFFSET __ehfuncinfo$?trcurrentItemChanged@ActionReceiver@@AAEXPAVQTreeWidgetItem@@0@Z
	jmp	___CxxFrameHandler3
text$x	ENDS
?trcurrentItemChanged@ActionReceiver@@AAEXPAVQTreeWidgetItem@@0@Z ENDP ; ActionReceiver::trcurrentItemChanged
; Function compile flags: /Ogtpy
;	COMDAT ?tritemSelectionChanged@ActionReceiver@@AAEXXZ
_TEXT	SEGMENT
_thread$2 = -20						; size = 8
__$EHRec$ = -12						; size = 12
?tritemSelectionChanged@ActionReceiver@@AAEXXZ PROC	; ActionReceiver::tritemSelectionChanged, COMDAT
; _this$ = ecx
; File e:\developments\cadaqs\canamespace\castudio\xcross\xlang\xlang\xlibrarys\qxlibrary\qxlibrary\qxapplication.h
; Line 256
	push	ebp
	mov	ebp, esp
	push	-1
	push	__ehhandler$?tritemSelectionChanged@ActionReceiver@@AAEXXZ
	mov	eax, DWORD PTR fs:0
	push	eax
	sub	esp, 12					; 0000000cH
	push	esi
	mov	eax, DWORD PTR ___security_cookie
	xor	eax, ebp
	push	eax
	lea	eax, DWORD PTR __$EHRec$[ebp]
	mov	DWORD PTR fs:0, eax
; Line 257
	call	?sender@QObject@@IBEPAV1@XZ		; QObject::sender
	push	eax
	mov	ecx, OFFSET ?staticMetaObject@QTreeWidget@@2UQMetaObject@@B ; QTreeWidget::staticMetaObject
	call	?cast@QMetaObject@@QBEPAVQObject@@PAV2@@Z ; QMetaObject::cast
; Line 259
	test	eax, eax
	je	SHORT $LN20@tritemSele
; Line 260
	push	256					; 00000100H
	mov	ecx, eax
	call	?userData@QObject@@QBEPAVQObjectUserData@@I@Z ; QObject::userData
	mov	esi, eax
; Line 262
	test	esi, esi
	je	SHORT $LN20@tritemSele
; Line 263
	cmp	DWORD PTR [esi+4], 0
	je	SHORT $LN20@tritemSele
; Line 264
	mov	BYTE PTR _thread$2[ebp+4], 0
	call	?currentThreadId@QThread@@SAPAXXZ	; QThread::currentThreadId
	cmp	eax, DWORD PTR ?ui_thread_id@@3PAXA	; ui_thread_id
	jne	SHORT $LN12@tritemSele
	mov	eax, DWORD PTR ?ui_thread@@3PAVXContext@@A ; ui_thread
	jmp	SHORT $LN24@tritemSele
$LN12@tritemSele:
	mov	ecx, DWORD PTR ?gs_env@@3PAVXNLEnv@@A	; gs_env
	lea	edx, DWORD PTR _thread$2[ebp+4]
	push	edx
	mov	eax, DWORD PTR [ecx]
	call	DWORD PTR [eax+60]
$LN24@tritemSele:
	mov	DWORD PTR _thread$2[ebp], eax
	mov	DWORD PTR __$EHRec$[ebp+8], 0
; Line 265
	mov	ecx, DWORD PTR ?methodIdent@@3PAUXIDENT@@A ; methodIdent
	push	DWORD PTR [ecx+1844]
	push	DWORD PTR [esi+4]
	push	eax
	call	?void_invoke@XNLEnv@@QAEXPAVXContext@@PAVXObject@@H@Z ; XNLEnv::void_invoke
; Line 266
	mov	DWORD PTR __$EHRec$[ebp+8], 1
	cmp	BYTE PTR _thread$2[ebp+4], 0
	je	SHORT $LN20@tritemSele
	mov	ecx, DWORD PTR ?gs_env@@3PAVXNLEnv@@A	; gs_env
	push	DWORD PTR _thread$2[ebp]
	mov	eax, DWORD PTR [ecx]
	call	DWORD PTR [eax+64]
$LN20@tritemSele:
; Line 269
	mov	ecx, DWORD PTR __$EHRec$[ebp]
	mov	DWORD PTR fs:0, ecx
	pop	ecx
	pop	esi
	mov	esp, ebp
	pop	ebp
	ret	0
_TEXT	ENDS
;	COMDAT text$x
text$x	SEGMENT
__unwindfunclet$?tritemSelectionChanged@ActionReceiver@@AAEXXZ$0:
	lea	ecx, DWORD PTR _thread$2[ebp]
	jmp	??1XThread@@QAE@XZ			; XThread::~XThread
__unwindfunclet$?tritemSelectionChanged@ActionReceiver@@AAEXXZ$1:
	call	___std_terminate
	ret	0
__ehhandler$?tritemSelectionChanged@ActionReceiver@@AAEXXZ:
	mov	edx, DWORD PTR [esp+8]
	lea	eax, DWORD PTR [edx+12]
	mov	ecx, DWORD PTR [edx-20]
	xor	ecx, eax
	call	@__security_check_cookie@4
	mov	eax, OFFSET __ehfuncinfo$?tritemSelectionChanged@ActionReceiver@@AAEXXZ
	jmp	___CxxFrameHandler3
text$x	ENDS
?tritemSelectionChanged@ActionReceiver@@AAEXXZ ENDP	; ActionReceiver::tritemSelectionChanged
; Function compile flags: /Ogtpy
;	COMDAT ?btnclicked@ActionReceiver@@AAEX_N@Z
_TEXT	SEGMENT
_thread$2 = -24						; size = 8
__$EHRec$ = -12						; size = 12
_checked$ = 8						; size = 1
?btnclicked@ActionReceiver@@AAEX_N@Z PROC		; ActionReceiver::btnclicked, COMDAT
; _this$ = ecx
; File e:\developments\cadaqs\canamespace\castudio\xcross\xlang\xlang\xlibrarys\qxlibrary\qxlibrary\qxapplication.h
; Line 271
	push	ebp
	mov	ebp, esp
	push	-1
	push	__ehhandler$?btnclicked@ActionReceiver@@AAEX_N@Z
	mov	eax, DWORD PTR fs:0
	push	eax
	sub	esp, 12					; 0000000cH
	push	esi
	push	edi
	mov	eax, DWORD PTR ___security_cookie
	xor	eax, ebp
	push	eax
	lea	eax, DWORD PTR __$EHRec$[ebp]
	mov	DWORD PTR fs:0, eax
; Line 272
	call	?sender@QObject@@IBEPAV1@XZ		; QObject::sender
	push	eax
	mov	ecx, OFFSET ?staticMetaObject@QObject@@2UQMetaObject@@B ; QObject::staticMetaObject
	call	?cast@QMetaObject@@QBEPAVQObject@@PAV2@@Z ; QMetaObject::cast
; Line 274
	test	eax, eax
	je	$LN20@btnclicked
; Line 275
	push	256					; 00000100H
	mov	ecx, eax
	call	?userData@QObject@@QBEPAVQObjectUserData@@I@Z ; QObject::userData
	mov	edi, eax
; Line 277
	test	edi, edi
	je	$LN20@btnclicked
; Line 278
	cmp	DWORD PTR [edi+4], 0
	je	$LN20@btnclicked
; Line 279
	mov	BYTE PTR _thread$2[ebp+4], 0
	call	?currentThreadId@QThread@@SAPAXXZ	; QThread::currentThreadId
	cmp	eax, DWORD PTR ?ui_thread_id@@3PAXA	; ui_thread_id
	jne	SHORT $LN12@btnclicked
	mov	eax, DWORD PTR ?ui_thread@@3PAVXContext@@A ; ui_thread
	jmp	SHORT $LN24@btnclicked
$LN12@btnclicked:
	mov	ecx, DWORD PTR ?gs_env@@3PAVXNLEnv@@A	; gs_env
	lea	edx, DWORD PTR _thread$2[ebp+4]
	push	edx
	mov	eax, DWORD PTR [ecx]
	call	DWORD PTR [eax+60]
$LN24@btnclicked:
	mov	DWORD PTR _thread$2[ebp], eax
	mov	DWORD PTR __$EHRec$[ebp+8], 0
; Line 280
	mov	ecx, DWORD PTR ?gs_env@@3PAVXNLEnv@@A	; gs_env
	mov	eax, DWORD PTR [ecx]
	call	DWORD PTR [eax+160]
; Line 281
	mov	ecx, DWORD PTR ?gs_env@@3PAVXNLEnv@@A	; gs_env
	mov	esi, eax
	push	DWORD PTR _checked$[ebp]
	push	esi
	mov	edx, DWORD PTR [ecx]
	call	DWORD PTR [edx+88]
; Line 282
	mov	eax, DWORD PTR ?methodIdent@@3PAUXIDENT@@A ; methodIdent
	push	esi
	push	DWORD PTR [eax+1868]
	push	DWORD PTR [edi+4]
	push	DWORD PTR _thread$2[ebp]
	call	??$void_invoke@PAVXObject@@$$V@XNLEnv@@QAEXPAVXContext@@PAVXObject@@H1@Z ; XNLEnv::void_invoke<XObject *>
; Line 283
	mov	ecx, DWORD PTR ?gs_env@@3PAVXNLEnv@@A	; gs_env
	push	esi
	mov	eax, DWORD PTR [ecx]
	call	DWORD PTR [eax+72]
; Line 284
	mov	DWORD PTR __$EHRec$[ebp+8], 1
	cmp	BYTE PTR _thread$2[ebp+4], 0
	je	SHORT $LN20@btnclicked
	mov	ecx, DWORD PTR ?gs_env@@3PAVXNLEnv@@A	; gs_env
	push	DWORD PTR _thread$2[ebp]
	mov	eax, DWORD PTR [ecx]
	call	DWORD PTR [eax+64]
$LN20@btnclicked:
; Line 288
	mov	ecx, DWORD PTR __$EHRec$[ebp]
	mov	DWORD PTR fs:0, ecx
	pop	ecx
	pop	edi
	pop	esi
	mov	esp, ebp
	pop	ebp
	ret	4
_TEXT	ENDS
;	COMDAT text$x
text$x	SEGMENT
__unwindfunclet$?btnclicked@ActionReceiver@@AAEX_N@Z$0:
	lea	ecx, DWORD PTR _thread$2[ebp]
	jmp	??1XThread@@QAE@XZ			; XThread::~XThread
__unwindfunclet$?btnclicked@ActionReceiver@@AAEX_N@Z$1:
	call	___std_terminate
	ret	0
__ehhandler$?btnclicked@ActionReceiver@@AAEX_N@Z:
	mov	edx, DWORD PTR [esp+8]
	lea	eax, DWORD PTR [edx+12]
	mov	ecx, DWORD PTR [edx-24]
	xor	ecx, eax
	call	@__security_check_cookie@4
	mov	eax, OFFSET __ehfuncinfo$?btnclicked@ActionReceiver@@AAEX_N@Z
	jmp	___CxxFrameHandler3
text$x	ENDS
?btnclicked@ActionReceiver@@AAEX_N@Z ENDP		; ActionReceiver::btnclicked
; Function compile flags: /Ogtpy
;	COMDAT ?btntoggled@ActionReceiver@@AAEX_N@Z
_TEXT	SEGMENT
_thread$2 = -24						; size = 8
__$EHRec$ = -12						; size = 12
_checked$ = 8						; size = 1
?btntoggled@ActionReceiver@@AAEX_N@Z PROC		; ActionReceiver::btntoggled, COMDAT
; _this$ = ecx
; File e:\developments\cadaqs\canamespace\castudio\xcross\xlang\xlang\xlibrarys\qxlibrary\qxlibrary\qxapplication.h
; Line 290
	push	ebp
	mov	ebp, esp
	push	-1
	push	__ehhandler$?btntoggled@ActionReceiver@@AAEX_N@Z
	mov	eax, DWORD PTR fs:0
	push	eax
	sub	esp, 12					; 0000000cH
	push	esi
	push	edi
	mov	eax, DWORD PTR ___security_cookie
	xor	eax, ebp
	push	eax
	lea	eax, DWORD PTR __$EHRec$[ebp]
	mov	DWORD PTR fs:0, eax
; Line 291
	call	?sender@QObject@@IBEPAV1@XZ		; QObject::sender
	push	eax
	mov	ecx, OFFSET ?staticMetaObject@QObject@@2UQMetaObject@@B ; QObject::staticMetaObject
	call	?cast@QMetaObject@@QBEPAVQObject@@PAV2@@Z ; QMetaObject::cast
; Line 293
	test	eax, eax
	je	$LN20@btntoggled
; Line 294
	push	256					; 00000100H
	mov	ecx, eax
	call	?userData@QObject@@QBEPAVQObjectUserData@@I@Z ; QObject::userData
	mov	edi, eax
; Line 296
	test	edi, edi
	je	$LN20@btntoggled
; Line 297
	cmp	DWORD PTR [edi+4], 0
	je	$LN20@btntoggled
; Line 298
	mov	BYTE PTR _thread$2[ebp+4], 0
	call	?currentThreadId@QThread@@SAPAXXZ	; QThread::currentThreadId
	cmp	eax, DWORD PTR ?ui_thread_id@@3PAXA	; ui_thread_id
	jne	SHORT $LN12@btntoggled
	mov	eax, DWORD PTR ?ui_thread@@3PAVXContext@@A ; ui_thread
	jmp	SHORT $LN24@btntoggled
$LN12@btntoggled:
	mov	ecx, DWORD PTR ?gs_env@@3PAVXNLEnv@@A	; gs_env
	lea	edx, DWORD PTR _thread$2[ebp+4]
	push	edx
	mov	eax, DWORD PTR [ecx]
	call	DWORD PTR [eax+60]
$LN24@btntoggled:
	mov	DWORD PTR _thread$2[ebp], eax
	mov	DWORD PTR __$EHRec$[ebp+8], 0
; Line 299
	mov	ecx, DWORD PTR ?gs_env@@3PAVXNLEnv@@A	; gs_env
	mov	eax, DWORD PTR [ecx]
	call	DWORD PTR [eax+160]
; Line 300
	mov	ecx, DWORD PTR ?gs_env@@3PAVXNLEnv@@A	; gs_env
	mov	esi, eax
	push	DWORD PTR _checked$[ebp]
	push	esi
	mov	edx, DWORD PTR [ecx]
	call	DWORD PTR [edx+88]
; Line 301
	mov	eax, DWORD PTR ?methodIdent@@3PAUXIDENT@@A ; methodIdent
	push	esi
	push	DWORD PTR [eax+1876]
	push	DWORD PTR [edi+4]
	push	DWORD PTR _thread$2[ebp]
	call	??$void_invoke@PAVXObject@@$$V@XNLEnv@@QAEXPAVXContext@@PAVXObject@@H1@Z ; XNLEnv::void_invoke<XObject *>
; Line 302
	mov	ecx, DWORD PTR ?gs_env@@3PAVXNLEnv@@A	; gs_env
	push	esi
	mov	eax, DWORD PTR [ecx]
	call	DWORD PTR [eax+72]
; Line 303
	mov	DWORD PTR __$EHRec$[ebp+8], 1
	cmp	BYTE PTR _thread$2[ebp+4], 0
	je	SHORT $LN20@btntoggled
	mov	ecx, DWORD PTR ?gs_env@@3PAVXNLEnv@@A	; gs_env
	push	DWORD PTR _thread$2[ebp]
	mov	eax, DWORD PTR [ecx]
	call	DWORD PTR [eax+64]
$LN20@btntoggled:
; Line 306
	mov	ecx, DWORD PTR __$EHRec$[ebp]
	mov	DWORD PTR fs:0, ecx
	pop	ecx
	pop	edi
	pop	esi
	mov	esp, ebp
	pop	ebp
	ret	4
_TEXT	ENDS
;	COMDAT text$x
text$x	SEGMENT
__unwindfunclet$?btntoggled@ActionReceiver@@AAEX_N@Z$0:
	lea	ecx, DWORD PTR _thread$2[ebp]
	jmp	??1XThread@@QAE@XZ			; XThread::~XThread
__unwindfunclet$?btntoggled@ActionReceiver@@AAEX_N@Z$1:
	call	___std_terminate
	ret	0
__ehhandler$?btntoggled@ActionReceiver@@AAEX_N@Z:
	mov	edx, DWORD PTR [esp+8]
	lea	eax, DWORD PTR [edx+12]
	mov	ecx, DWORD PTR [edx-24]
	xor	ecx, eax
	call	@__security_check_cookie@4
	mov	eax, OFFSET __ehfuncinfo$?btntoggled@ActionReceiver@@AAEX_N@Z
	jmp	___CxxFrameHandler3
text$x	ENDS
?btntoggled@ActionReceiver@@AAEX_N@Z ENDP		; ActionReceiver::btntoggled
; Function compile flags: /Ogtpy
;	COMDAT ?btnpressed@ActionReceiver@@AAEXXZ
_TEXT	SEGMENT
_thread$2 = -20						; size = 8
__$EHRec$ = -12						; size = 12
?btnpressed@ActionReceiver@@AAEXXZ PROC			; ActionReceiver::btnpressed, COMDAT
; _this$ = ecx
; File e:\developments\cadaqs\canamespace\castudio\xcross\xlang\xlang\xlibrarys\qxlibrary\qxlibrary\qxapplication.h
; Line 308
	push	ebp
	mov	ebp, esp
	push	-1
	push	__ehhandler$?btnpressed@ActionReceiver@@AAEXXZ
	mov	eax, DWORD PTR fs:0
	push	eax
	sub	esp, 12					; 0000000cH
	push	esi
	mov	eax, DWORD PTR ___security_cookie
	xor	eax, ebp
	push	eax
	lea	eax, DWORD PTR __$EHRec$[ebp]
	mov	DWORD PTR fs:0, eax
; Line 309
	call	?sender@QObject@@IBEPAV1@XZ		; QObject::sender
	push	eax
	mov	ecx, OFFSET ?staticMetaObject@QObject@@2UQMetaObject@@B ; QObject::staticMetaObject
	call	?cast@QMetaObject@@QBEPAVQObject@@PAV2@@Z ; QMetaObject::cast
; Line 311
	test	eax, eax
	je	SHORT $LN20@btnpressed
; Line 312
	push	256					; 00000100H
	mov	ecx, eax
	call	?userData@QObject@@QBEPAVQObjectUserData@@I@Z ; QObject::userData
	mov	esi, eax
; Line 314
	test	esi, esi
	je	SHORT $LN20@btnpressed
; Line 315
	cmp	DWORD PTR [esi+4], 0
	je	SHORT $LN20@btnpressed
; Line 316
	mov	BYTE PTR _thread$2[ebp+4], 0
	call	?currentThreadId@QThread@@SAPAXXZ	; QThread::currentThreadId
	cmp	eax, DWORD PTR ?ui_thread_id@@3PAXA	; ui_thread_id
	jne	SHORT $LN12@btnpressed
	mov	eax, DWORD PTR ?ui_thread@@3PAVXContext@@A ; ui_thread
	jmp	SHORT $LN24@btnpressed
$LN12@btnpressed:
	mov	ecx, DWORD PTR ?gs_env@@3PAVXNLEnv@@A	; gs_env
	lea	edx, DWORD PTR _thread$2[ebp+4]
	push	edx
	mov	eax, DWORD PTR [ecx]
	call	DWORD PTR [eax+60]
$LN24@btnpressed:
	mov	DWORD PTR _thread$2[ebp], eax
	mov	DWORD PTR __$EHRec$[ebp+8], 0
; Line 317
	mov	ecx, DWORD PTR ?methodIdent@@3PAUXIDENT@@A ; methodIdent
	push	DWORD PTR [ecx+1892]
	push	DWORD PTR [esi+4]
	push	eax
	call	?void_invoke@XNLEnv@@QAEXPAVXContext@@PAVXObject@@H@Z ; XNLEnv::void_invoke
; Line 318
	mov	DWORD PTR __$EHRec$[ebp+8], 1
	cmp	BYTE PTR _thread$2[ebp+4], 0
	je	SHORT $LN20@btnpressed
	mov	ecx, DWORD PTR ?gs_env@@3PAVXNLEnv@@A	; gs_env
	push	DWORD PTR _thread$2[ebp]
	mov	eax, DWORD PTR [ecx]
	call	DWORD PTR [eax+64]
$LN20@btnpressed:
; Line 321
	mov	ecx, DWORD PTR __$EHRec$[ebp]
	mov	DWORD PTR fs:0, ecx
	pop	ecx
	pop	esi
	mov	esp, ebp
	pop	ebp
	ret	0
_TEXT	ENDS
;	COMDAT text$x
text$x	SEGMENT
__unwindfunclet$?btnpressed@ActionReceiver@@AAEXXZ$0:
	lea	ecx, DWORD PTR _thread$2[ebp]
	jmp	??1XThread@@QAE@XZ			; XThread::~XThread
__unwindfunclet$?btnpressed@ActionReceiver@@AAEXXZ$1:
	call	___std_terminate
	ret	0
__ehhandler$?btnpressed@ActionReceiver@@AAEXXZ:
	mov	edx, DWORD PTR [esp+8]
	lea	eax, DWORD PTR [edx+12]
	mov	ecx, DWORD PTR [edx-20]
	xor	ecx, eax
	call	@__security_check_cookie@4
	mov	eax, OFFSET __ehfuncinfo$?btnpressed@ActionReceiver@@AAEXXZ
	jmp	___CxxFrameHandler3
text$x	ENDS
?btnpressed@ActionReceiver@@AAEXXZ ENDP			; ActionReceiver::btnpressed
; Function compile flags: /Ogtpy
;	COMDAT ?btnreleased@ActionReceiver@@AAEXXZ
_TEXT	SEGMENT
_thread$2 = -20						; size = 8
__$EHRec$ = -12						; size = 12
?btnreleased@ActionReceiver@@AAEXXZ PROC		; ActionReceiver::btnreleased, COMDAT
; _this$ = ecx
; File e:\developments\cadaqs\canamespace\castudio\xcross\xlang\xlang\xlibrarys\qxlibrary\qxlibrary\qxapplication.h
; Line 323
	push	ebp
	mov	ebp, esp
	push	-1
	push	__ehhandler$?btnreleased@ActionReceiver@@AAEXXZ
	mov	eax, DWORD PTR fs:0
	push	eax
	sub	esp, 12					; 0000000cH
	push	esi
	mov	eax, DWORD PTR ___security_cookie
	xor	eax, ebp
	push	eax
	lea	eax, DWORD PTR __$EHRec$[ebp]
	mov	DWORD PTR fs:0, eax
; Line 324
	call	?sender@QObject@@IBEPAV1@XZ		; QObject::sender
	push	eax
	mov	ecx, OFFSET ?staticMetaObject@QObject@@2UQMetaObject@@B ; QObject::staticMetaObject
	call	?cast@QMetaObject@@QBEPAVQObject@@PAV2@@Z ; QMetaObject::cast
; Line 326
	test	eax, eax
	je	SHORT $LN20@btnrelease
; Line 327
	push	256					; 00000100H
	mov	ecx, eax
	call	?userData@QObject@@QBEPAVQObjectUserData@@I@Z ; QObject::userData
	mov	esi, eax
; Line 329
	test	esi, esi
	je	SHORT $LN20@btnrelease
; Line 330
	cmp	DWORD PTR [esi+4], 0
	je	SHORT $LN20@btnrelease
; Line 331
	mov	BYTE PTR _thread$2[ebp+4], 0
	call	?currentThreadId@QThread@@SAPAXXZ	; QThread::currentThreadId
	cmp	eax, DWORD PTR ?ui_thread_id@@3PAXA	; ui_thread_id
	jne	SHORT $LN12@btnrelease
	mov	eax, DWORD PTR ?ui_thread@@3PAVXContext@@A ; ui_thread
	jmp	SHORT $LN24@btnrelease
$LN12@btnrelease:
	mov	ecx, DWORD PTR ?gs_env@@3PAVXNLEnv@@A	; gs_env
	lea	edx, DWORD PTR _thread$2[ebp+4]
	push	edx
	mov	eax, DWORD PTR [ecx]
	call	DWORD PTR [eax+60]
$LN24@btnrelease:
	mov	DWORD PTR _thread$2[ebp], eax
	mov	DWORD PTR __$EHRec$[ebp+8], 0
; Line 332
	mov	ecx, DWORD PTR ?methodIdent@@3PAUXIDENT@@A ; methodIdent
	push	DWORD PTR [ecx+1900]
	push	DWORD PTR [esi+4]
	push	eax
	call	?void_invoke@XNLEnv@@QAEXPAVXContext@@PAVXObject@@H@Z ; XNLEnv::void_invoke
; Line 333
	mov	DWORD PTR __$EHRec$[ebp+8], 1
	cmp	BYTE PTR _thread$2[ebp+4], 0
	je	SHORT $LN20@btnrelease
	mov	ecx, DWORD PTR ?gs_env@@3PAVXNLEnv@@A	; gs_env
	push	DWORD PTR _thread$2[ebp]
	mov	eax, DWORD PTR [ecx]
	call	DWORD PTR [eax+64]
$LN20@btnrelease:
; Line 336
	mov	ecx, DWORD PTR __$EHRec$[ebp]
	mov	DWORD PTR fs:0, ecx
	pop	ecx
	pop	esi
	mov	esp, ebp
	pop	ebp
	ret	0
_TEXT	ENDS
;	COMDAT text$x
text$x	SEGMENT
__unwindfunclet$?btnreleased@ActionReceiver@@AAEXXZ$0:
	lea	ecx, DWORD PTR _thread$2[ebp]
	jmp	??1XThread@@QAE@XZ			; XThread::~XThread
__unwindfunclet$?btnreleased@ActionReceiver@@AAEXXZ$1:
	call	___std_terminate
	ret	0
__ehhandler$?btnreleased@ActionReceiver@@AAEXXZ:
	mov	edx, DWORD PTR [esp+8]
	lea	eax, DWORD PTR [edx+12]
	mov	ecx, DWORD PTR [edx-20]
	xor	ecx, eax
	call	@__security_check_cookie@4
	mov	eax, OFFSET __ehfuncinfo$?btnreleased@ActionReceiver@@AAEXXZ
	jmp	___CxxFrameHandler3
text$x	ENDS
?btnreleased@ActionReceiver@@AAEXXZ ENDP		; ActionReceiver::btnreleased
; Function compile flags: /Ogtpy
;	COMDAT ?onFinish@ActionReceiver@@AAEXH@Z
_TEXT	SEGMENT
_thread$2 = -24						; size = 8
__$EHRec$ = -12						; size = 12
_res$ = 8						; size = 4
?onFinish@ActionReceiver@@AAEXH@Z PROC			; ActionReceiver::onFinish, COMDAT
; _this$ = ecx
; File e:\developments\cadaqs\canamespace\castudio\xcross\xlang\xlang\xlibrarys\qxlibrary\qxlibrary\qxapplication.h
; Line 338
	push	ebp
	mov	ebp, esp
	push	-1
	push	__ehhandler$?onFinish@ActionReceiver@@AAEXH@Z
	mov	eax, DWORD PTR fs:0
	push	eax
	sub	esp, 12					; 0000000cH
	push	esi
	push	edi
	mov	eax, DWORD PTR ___security_cookie
	xor	eax, ebp
	push	eax
	lea	eax, DWORD PTR __$EHRec$[ebp]
	mov	DWORD PTR fs:0, eax
; Line 339
	call	?sender@QObject@@IBEPAV1@XZ		; QObject::sender
	push	eax
	mov	ecx, OFFSET ?staticMetaObject@QObject@@2UQMetaObject@@B ; QObject::staticMetaObject
	call	?cast@QMetaObject@@QBEPAVQObject@@PAV2@@Z ; QMetaObject::cast
; Line 341
	test	eax, eax
	je	$LN20@onFinish
; Line 342
	push	256					; 00000100H
	mov	ecx, eax
	call	?userData@QObject@@QBEPAVQObjectUserData@@I@Z ; QObject::userData
	mov	edi, eax
; Line 344
	test	edi, edi
	je	$LN20@onFinish
; Line 345
	cmp	DWORD PTR [edi+4], 0
	je	$LN20@onFinish
; Line 346
	mov	BYTE PTR _thread$2[ebp+4], 0
	call	?currentThreadId@QThread@@SAPAXXZ	; QThread::currentThreadId
	cmp	eax, DWORD PTR ?ui_thread_id@@3PAXA	; ui_thread_id
	jne	SHORT $LN12@onFinish
	mov	eax, DWORD PTR ?ui_thread@@3PAVXContext@@A ; ui_thread
	jmp	SHORT $LN24@onFinish
$LN12@onFinish:
	mov	ecx, DWORD PTR ?gs_env@@3PAVXNLEnv@@A	; gs_env
	lea	edx, DWORD PTR _thread$2[ebp+4]
	push	edx
	mov	eax, DWORD PTR [ecx]
	call	DWORD PTR [eax+60]
$LN24@onFinish:
	mov	DWORD PTR _thread$2[ebp], eax
	mov	DWORD PTR __$EHRec$[ebp+8], 0
; Line 347
	mov	ecx, DWORD PTR ?gs_env@@3PAVXNLEnv@@A	; gs_env
	mov	eax, DWORD PTR [ecx]
	call	DWORD PTR [eax+160]
; Line 348
	mov	ecx, DWORD PTR ?gs_env@@3PAVXNLEnv@@A	; gs_env
	mov	esi, eax
	push	DWORD PTR _res$[ebp]
	push	esi
	mov	edx, DWORD PTR [ecx]
	call	DWORD PTR [edx+100]
; Line 349
	mov	eax, DWORD PTR ?methodIdent@@3PAUXIDENT@@A ; methodIdent
	push	esi
	push	DWORD PTR [eax+1908]
	push	DWORD PTR [edi+4]
	push	DWORD PTR _thread$2[ebp]
	call	??$void_invoke@PAVXObject@@$$V@XNLEnv@@QAEXPAVXContext@@PAVXObject@@H1@Z ; XNLEnv::void_invoke<XObject *>
; Line 350
	mov	ecx, DWORD PTR ?gs_env@@3PAVXNLEnv@@A	; gs_env
	push	esi
	mov	eax, DWORD PTR [ecx]
	call	DWORD PTR [eax+72]
; Line 351
	mov	DWORD PTR __$EHRec$[ebp+8], 1
	cmp	BYTE PTR _thread$2[ebp+4], 0
	je	SHORT $LN20@onFinish
	mov	ecx, DWORD PTR ?gs_env@@3PAVXNLEnv@@A	; gs_env
	push	DWORD PTR _thread$2[ebp]
	mov	eax, DWORD PTR [ecx]
	call	DWORD PTR [eax+64]
$LN20@onFinish:
; Line 354
	mov	ecx, DWORD PTR __$EHRec$[ebp]
	mov	DWORD PTR fs:0, ecx
	pop	ecx
	pop	edi
	pop	esi
	mov	esp, ebp
	pop	ebp
	ret	4
_TEXT	ENDS
;	COMDAT text$x
text$x	SEGMENT
__unwindfunclet$?onFinish@ActionReceiver@@AAEXH@Z$0:
	lea	ecx, DWORD PTR _thread$2[ebp]
	jmp	??1XThread@@QAE@XZ			; XThread::~XThread
__unwindfunclet$?onFinish@ActionReceiver@@AAEXH@Z$1:
	call	___std_terminate
	ret	0
__ehhandler$?onFinish@ActionReceiver@@AAEXH@Z:
	mov	edx, DWORD PTR [esp+8]
	lea	eax, DWORD PTR [edx+12]
	mov	ecx, DWORD PTR [edx-24]
	xor	ecx, eax
	call	@__security_check_cookie@4
	mov	eax, OFFSET __ehfuncinfo$?onFinish@ActionReceiver@@AAEXH@Z
	jmp	___CxxFrameHandler3
text$x	ENDS
?onFinish@ActionReceiver@@AAEXH@Z ENDP			; ActionReceiver::onFinish
; Function compile flags: /Ogtpy
;	COMDAT ?onEditTextChanged@ActionReceiver@@AAEXABVQString@@@Z
_TEXT	SEGMENT
_thread$2 = -32						; size = 8
_objectData$1$ = -24					; size = 4
_pbtext$3 = -20						; size = 4
__$EHRec$ = -12						; size = 12
_str$ = 8						; size = 4
?onEditTextChanged@ActionReceiver@@AAEXABVQString@@@Z PROC ; ActionReceiver::onEditTextChanged, COMDAT
; _this$ = ecx
; File e:\developments\cadaqs\canamespace\castudio\xcross\xlang\xlang\xlibrarys\qxlibrary\qxlibrary\qxapplication.h
; Line 356
	push	ebp
	mov	ebp, esp
	push	-1
	push	__ehhandler$?onEditTextChanged@ActionReceiver@@AAEXABVQString@@@Z
	mov	eax, DWORD PTR fs:0
	push	eax
	sub	esp, 24					; 00000018H
	push	ebx
	push	esi
	push	edi
	mov	eax, DWORD PTR ___security_cookie
	xor	eax, ebp
	push	eax
	lea	eax, DWORD PTR __$EHRec$[ebp]
	mov	DWORD PTR fs:0, eax
; Line 357
	call	?sender@QObject@@IBEPAV1@XZ		; QObject::sender
	push	eax
	mov	ecx, OFFSET ?staticMetaObject@QObject@@2UQMetaObject@@B ; QObject::staticMetaObject
	call	?cast@QMetaObject@@QBEPAVQObject@@PAV2@@Z ; QMetaObject::cast
; Line 359
	test	eax, eax
	je	$LN50@onEditText
; Line 360
	push	256					; 00000100H
	mov	ecx, eax
	call	?userData@QObject@@QBEPAVQObjectUserData@@I@Z ; QObject::userData
	mov	DWORD PTR _objectData$1$[ebp], eax
; Line 362
	test	eax, eax
	je	$LN50@onEditText
; Line 363
	cmp	DWORD PTR [eax+4], 0
	je	$LN50@onEditText
; Line 364
	mov	BYTE PTR _thread$2[ebp+4], 0
	call	?currentThreadId@QThread@@SAPAXXZ	; QThread::currentThreadId
	cmp	eax, DWORD PTR ?ui_thread_id@@3PAXA	; ui_thread_id
	jne	SHORT $LN13@onEditText
	mov	eax, DWORD PTR ?ui_thread@@3PAVXContext@@A ; ui_thread
	jmp	SHORT $LN55@onEditText
$LN13@onEditText:
	mov	ecx, DWORD PTR ?gs_env@@3PAVXNLEnv@@A	; gs_env
	lea	edx, DWORD PTR _thread$2[ebp+4]
	push	edx
	mov	eax, DWORD PTR [ecx]
	call	DWORD PTR [eax+60]
$LN55@onEditText:
	mov	DWORD PTR _thread$2[ebp], eax
	mov	DWORD PTR __$EHRec$[ebp+8], 0
; Line 365
	mov	ecx, DWORD PTR ?gs_env@@3PAVXNLEnv@@A	; gs_env
	mov	eax, DWORD PTR [ecx]
	call	DWORD PTR [eax+160]
; Line 366
	mov	ecx, DWORD PTR _str$[ebp]
	mov	ebx, eax
	lea	eax, DWORD PTR _pbtext$3[ebp]
	push	eax
	call	?toUtf8@QString@@QGBE?AVQByteArray@@XZ	; QString::toUtf8
	mov	BYTE PTR __$EHRec$[ebp+8], 1
; Line 367
	mov	ecx, DWORD PTR _pbtext$3[ebp]
	mov	eax, DWORD PTR ?gs_env@@3PAVXNLEnv@@A	; gs_env
	mov	esi, DWORD PTR _thread$2[ebp]
	push	DWORD PTR [ecx+4]
	mov	edi, DWORD PTR [eax]
	lea	ecx, DWORD PTR _pbtext$3[ebp]
	call	?data@QByteArray@@QAEPADXZ		; QByteArray::data
	mov	ecx, DWORD PTR ?gs_env@@3PAVXNLEnv@@A	; gs_env
	push	eax
	push	ebx
	push	esi
	call	DWORD PTR [edi+84]
; Line 368
	mov	eax, DWORD PTR ?methodIdent@@3PAUXIDENT@@A ; methodIdent
	push	ebx
	push	DWORD PTR [eax+2244]
	mov	eax, DWORD PTR _objectData$1$[ebp]
	push	DWORD PTR [eax+4]
	push	DWORD PTR _thread$2[ebp]
	call	??$void_invoke@PAVXObject@@$$V@XNLEnv@@QAEXPAVXContext@@PAVXObject@@H1@Z ; XNLEnv::void_invoke<XObject *>
; Line 369
	mov	ecx, DWORD PTR ?gs_env@@3PAVXNLEnv@@A	; gs_env
	push	ebx
	mov	eax, DWORD PTR [ecx]
	call	DWORD PTR [eax+72]
; Line 370
	mov	eax, DWORD PTR _pbtext$3[ebp]
	mov	ecx, DWORD PTR [eax]
	test	ecx, ecx
	je	SHORT $LN53@onEditText
	cmp	ecx, -1
	je	SHORT $LN25@onEditText
	or	ecx, -1
	lock	 xadd	 DWORD PTR [eax], ecx
	setne	al
	test	al, al
	jne	SHORT $LN25@onEditText
	mov	eax, DWORD PTR _pbtext$3[ebp]
$LN53@onEditText:
	push	4
	push	1
	push	eax
	call	?deallocate@QArrayData@@SAXPAU1@II@Z	; QArrayData::deallocate
	add	esp, 12					; 0000000cH
$LN25@onEditText:
	mov	DWORD PTR __$EHRec$[ebp+8], 2
	cmp	BYTE PTR _thread$2[ebp+4], 0
	je	SHORT $LN50@onEditText
	mov	ecx, DWORD PTR ?gs_env@@3PAVXNLEnv@@A	; gs_env
	push	DWORD PTR _thread$2[ebp]
	mov	eax, DWORD PTR [ecx]
	call	DWORD PTR [eax+64]
$LN50@onEditText:
; Line 373
	mov	ecx, DWORD PTR __$EHRec$[ebp]
	mov	DWORD PTR fs:0, ecx
	pop	ecx
	pop	edi
	pop	esi
	pop	ebx
	mov	esp, ebp
	pop	ebp
	ret	4
_TEXT	ENDS
;	COMDAT text$x
text$x	SEGMENT
__unwindfunclet$?onEditTextChanged@ActionReceiver@@AAEXABVQString@@@Z$0:
	lea	ecx, DWORD PTR _thread$2[ebp]
	jmp	??1XThread@@QAE@XZ			; XThread::~XThread
__unwindfunclet$?onEditTextChanged@ActionReceiver@@AAEXABVQString@@@Z$1:
	lea	ecx, DWORD PTR _pbtext$3[ebp]
	jmp	??1QByteArray@@QAE@XZ			; QByteArray::~QByteArray
__unwindfunclet$?onEditTextChanged@ActionReceiver@@AAEXABVQString@@@Z$8:
	call	___std_terminate
	ret	0
__ehhandler$?onEditTextChanged@ActionReceiver@@AAEXABVQString@@@Z:
	mov	edx, DWORD PTR [esp+8]
	lea	eax, DWORD PTR [edx+12]
	mov	ecx, DWORD PTR [edx-40]
	xor	ecx, eax
	call	@__security_check_cookie@4
	mov	eax, OFFSET __ehfuncinfo$?onEditTextChanged@ActionReceiver@@AAEXABVQString@@@Z
	jmp	___CxxFrameHandler3
text$x	ENDS
?onEditTextChanged@ActionReceiver@@AAEXABVQString@@@Z ENDP ; ActionReceiver::onEditTextChanged
; Function compile flags: /Ogtpy
;	COMDAT ?onActivated@ActionReceiver@@AAEXH@Z
_TEXT	SEGMENT
_thread$2 = -24						; size = 8
__$EHRec$ = -12						; size = 12
_index$ = 8						; size = 4
?onActivated@ActionReceiver@@AAEXH@Z PROC		; ActionReceiver::onActivated, COMDAT
; _this$ = ecx
; File e:\developments\cadaqs\canamespace\castudio\xcross\xlang\xlang\xlibrarys\qxlibrary\qxlibrary\qxapplication.h
; Line 375
	push	ebp
	mov	ebp, esp
	push	-1
	push	__ehhandler$?onActivated@ActionReceiver@@AAEXH@Z
	mov	eax, DWORD PTR fs:0
	push	eax
	sub	esp, 12					; 0000000cH
	push	esi
	push	edi
	mov	eax, DWORD PTR ___security_cookie
	xor	eax, ebp
	push	eax
	lea	eax, DWORD PTR __$EHRec$[ebp]
	mov	DWORD PTR fs:0, eax
; Line 376
	call	?sender@QObject@@IBEPAV1@XZ		; QObject::sender
	push	eax
	mov	ecx, OFFSET ?staticMetaObject@QObject@@2UQMetaObject@@B ; QObject::staticMetaObject
	call	?cast@QMetaObject@@QBEPAVQObject@@PAV2@@Z ; QMetaObject::cast
; Line 378
	test	eax, eax
	je	$LN20@onActivate
; Line 379
	push	256					; 00000100H
	mov	ecx, eax
	call	?userData@QObject@@QBEPAVQObjectUserData@@I@Z ; QObject::userData
	mov	edi, eax
; Line 381
	test	edi, edi
	je	$LN20@onActivate
; Line 382
	cmp	DWORD PTR [edi+4], 0
	je	$LN20@onActivate
; Line 383
	mov	BYTE PTR _thread$2[ebp+4], 0
	call	?currentThreadId@QThread@@SAPAXXZ	; QThread::currentThreadId
	cmp	eax, DWORD PTR ?ui_thread_id@@3PAXA	; ui_thread_id
	jne	SHORT $LN12@onActivate
	mov	eax, DWORD PTR ?ui_thread@@3PAVXContext@@A ; ui_thread
	jmp	SHORT $LN24@onActivate
$LN12@onActivate:
	mov	ecx, DWORD PTR ?gs_env@@3PAVXNLEnv@@A	; gs_env
	lea	edx, DWORD PTR _thread$2[ebp+4]
	push	edx
	mov	eax, DWORD PTR [ecx]
	call	DWORD PTR [eax+60]
$LN24@onActivate:
	mov	DWORD PTR _thread$2[ebp], eax
	mov	DWORD PTR __$EHRec$[ebp+8], 0
; Line 384
	mov	ecx, DWORD PTR ?gs_env@@3PAVXNLEnv@@A	; gs_env
	mov	eax, DWORD PTR [ecx]
	call	DWORD PTR [eax+160]
; Line 385
	mov	ecx, DWORD PTR ?gs_env@@3PAVXNLEnv@@A	; gs_env
	mov	esi, eax
	push	DWORD PTR _index$[ebp]
	push	esi
	mov	edx, DWORD PTR [ecx]
	call	DWORD PTR [edx+100]
; Line 386
	mov	eax, DWORD PTR ?methodIdent@@3PAUXIDENT@@A ; methodIdent
	push	esi
	push	DWORD PTR [eax+2252]
	push	DWORD PTR [edi+4]
	push	DWORD PTR _thread$2[ebp]
	call	??$void_invoke@PAVXObject@@$$V@XNLEnv@@QAEXPAVXContext@@PAVXObject@@H1@Z ; XNLEnv::void_invoke<XObject *>
; Line 387
	mov	ecx, DWORD PTR ?gs_env@@3PAVXNLEnv@@A	; gs_env
	push	esi
	mov	eax, DWORD PTR [ecx]
	call	DWORD PTR [eax+72]
; Line 388
	mov	DWORD PTR __$EHRec$[ebp+8], 1
	cmp	BYTE PTR _thread$2[ebp+4], 0
	je	SHORT $LN20@onActivate
	mov	ecx, DWORD PTR ?gs_env@@3PAVXNLEnv@@A	; gs_env
	push	DWORD PTR _thread$2[ebp]
	mov	eax, DWORD PTR [ecx]
	call	DWORD PTR [eax+64]
$LN20@onActivate:
; Line 391
	mov	ecx, DWORD PTR __$EHRec$[ebp]
	mov	DWORD PTR fs:0, ecx
	pop	ecx
	pop	edi
	pop	esi
	mov	esp, ebp
	pop	ebp
	ret	4
_TEXT	ENDS
;	COMDAT text$x
text$x	SEGMENT
__unwindfunclet$?onActivated@ActionReceiver@@AAEXH@Z$0:
	lea	ecx, DWORD PTR _thread$2[ebp]
	jmp	??1XThread@@QAE@XZ			; XThread::~XThread
__unwindfunclet$?onActivated@ActionReceiver@@AAEXH@Z$1:
	call	___std_terminate
	ret	0
__ehhandler$?onActivated@ActionReceiver@@AAEXH@Z:
	mov	edx, DWORD PTR [esp+8]
	lea	eax, DWORD PTR [edx+12]
	mov	ecx, DWORD PTR [edx-24]
	xor	ecx, eax
	call	@__security_check_cookie@4
	mov	eax, OFFSET __ehfuncinfo$?onActivated@ActionReceiver@@AAEXH@Z
	jmp	___CxxFrameHandler3
text$x	ENDS
?onActivated@ActionReceiver@@AAEXH@Z ENDP		; ActionReceiver::onActivated
; Function compile flags: /Ogtpy
;	COMDAT ?onfswFileChanged@ActionReceiver@@AAEXVQString@@@Z
_TEXT	SEGMENT
_thread$2 = -32						; size = 8
_objectData$1$ = -24					; size = 4
_pbtext$3 = -20						; size = 4
__$EHRec$ = -12						; size = 12
_path$ = 8						; size = 4
?onfswFileChanged@ActionReceiver@@AAEXVQString@@@Z PROC	; ActionReceiver::onfswFileChanged, COMDAT
; _this$ = ecx
; File e:\developments\cadaqs\canamespace\castudio\xcross\xlang\xlang\xlibrarys\qxlibrary\qxlibrary\qxapplication.h
; Line 393
	push	ebp
	mov	ebp, esp
	push	-1
	push	__ehhandler$?onfswFileChanged@ActionReceiver@@AAEXVQString@@@Z
	mov	eax, DWORD PTR fs:0
	push	eax
	sub	esp, 24					; 00000018H
	push	ebx
	push	esi
	push	edi
	mov	eax, DWORD PTR ___security_cookie
	xor	eax, ebp
	push	eax
	lea	eax, DWORD PTR __$EHRec$[ebp]
	mov	DWORD PTR fs:0, eax
	mov	DWORD PTR __$EHRec$[ebp+8], 0
; Line 394
	call	?sender@QObject@@IBEPAV1@XZ		; QObject::sender
	push	eax
	mov	ecx, OFFSET ?staticMetaObject@QObject@@2UQMetaObject@@B ; QObject::staticMetaObject
	call	?cast@QMetaObject@@QBEPAVQObject@@PAV2@@Z ; QMetaObject::cast
; Line 396
	or	ecx, -1
	test	eax, eax
	je	$LN51@onfswFileC
; Line 397
	push	256					; 00000100H
	mov	ecx, eax
	call	?userData@QObject@@QBEPAVQObjectUserData@@I@Z ; QObject::userData
	mov	DWORD PTR _objectData$1$[ebp], eax
; Line 399
	test	eax, eax
	je	$LN83@onfswFileC
; Line 400
	cmp	DWORD PTR [eax+4], 0
	je	$LN83@onfswFileC
; Line 401
	mov	BYTE PTR _thread$2[ebp+4], 0
	call	?currentThreadId@QThread@@SAPAXXZ	; QThread::currentThreadId
	cmp	eax, DWORD PTR ?ui_thread_id@@3PAXA	; ui_thread_id
	jne	SHORT $LN14@onfswFileC
	mov	eax, DWORD PTR ?ui_thread@@3PAVXContext@@A ; ui_thread
	jmp	SHORT $LN85@onfswFileC
$LN14@onfswFileC:
	mov	ecx, DWORD PTR ?gs_env@@3PAVXNLEnv@@A	; gs_env
	lea	edx, DWORD PTR _thread$2[ebp+4]
	push	edx
	mov	eax, DWORD PTR [ecx]
	call	DWORD PTR [eax+60]
$LN85@onfswFileC:
	mov	DWORD PTR _thread$2[ebp], eax
	mov	BYTE PTR __$EHRec$[ebp+8], 1
; Line 402
	mov	ecx, DWORD PTR ?gs_env@@3PAVXNLEnv@@A	; gs_env
	mov	eax, DWORD PTR [ecx]
	call	DWORD PTR [eax+160]
	mov	ebx, eax
; Line 403
	lea	ecx, DWORD PTR _path$[ebp]
	lea	eax, DWORD PTR _pbtext$3[ebp]
	push	eax
	call	?toUtf8@QString@@QGBE?AVQByteArray@@XZ	; QString::toUtf8
	mov	BYTE PTR __$EHRec$[ebp+8], 2
; Line 404
	mov	ecx, DWORD PTR _pbtext$3[ebp]
	mov	eax, DWORD PTR ?gs_env@@3PAVXNLEnv@@A	; gs_env
	mov	esi, DWORD PTR _thread$2[ebp]
	push	DWORD PTR [ecx+4]
	mov	edi, DWORD PTR [eax]
	lea	ecx, DWORD PTR _pbtext$3[ebp]
	call	?data@QByteArray@@QAEPADXZ		; QByteArray::data
	mov	ecx, DWORD PTR ?gs_env@@3PAVXNLEnv@@A	; gs_env
	push	eax
	push	ebx
	push	esi
	call	DWORD PTR [edi+84]
; Line 405
	mov	eax, DWORD PTR ?methodIdent@@3PAUXIDENT@@A ; methodIdent
	push	ebx
	push	DWORD PTR [eax+2268]
	mov	eax, DWORD PTR _objectData$1$[ebp]
	push	DWORD PTR [eax+4]
	push	DWORD PTR _thread$2[ebp]
	call	??$void_invoke@PAVXObject@@$$V@XNLEnv@@QAEXPAVXContext@@PAVXObject@@H1@Z ; XNLEnv::void_invoke<XObject *>
; Line 406
	mov	ecx, DWORD PTR ?gs_env@@3PAVXNLEnv@@A	; gs_env
	push	ebx
	mov	eax, DWORD PTR [ecx]
	call	DWORD PTR [eax+72]
; Line 407
	mov	eax, DWORD PTR _pbtext$3[ebp]
	mov	ecx, DWORD PTR [eax]
	test	ecx, ecx
	je	SHORT $LN79@onfswFileC
	cmp	ecx, -1
	je	SHORT $LN26@onfswFileC
	or	ecx, -1
	lock	 xadd	 DWORD PTR [eax], ecx
	setne	al
	test	al, al
	jne	SHORT $LN26@onfswFileC
	mov	eax, DWORD PTR _pbtext$3[ebp]
$LN79@onfswFileC:
	push	4
	push	1
	push	eax
	call	?deallocate@QArrayData@@SAXPAU1@II@Z	; QArrayData::deallocate
	add	esp, 12					; 0000000cH
$LN26@onfswFileC:
	mov	BYTE PTR __$EHRec$[ebp+8], 3
	cmp	BYTE PTR _thread$2[ebp+4], 0
	je	SHORT $LN83@onfswFileC
	mov	ecx, DWORD PTR ?gs_env@@3PAVXNLEnv@@A	; gs_env
	push	DWORD PTR _thread$2[ebp]
	mov	eax, DWORD PTR [ecx]
	call	DWORD PTR [eax+64]
$LN83@onfswFileC:
	or	ecx, -1
$LN51@onfswFileC:
; Line 410
	mov	eax, DWORD PTR _path$[ebp]
	mov	edx, DWORD PTR [eax]
	test	edx, edx
	je	SHORT $LN80@onfswFileC
	cmp	edx, -1
	je	SHORT $LN55@onfswFileC
	lock	 xadd	 DWORD PTR [eax], ecx
	dec	ecx
	setne	al
	test	al, al
	jne	SHORT $LN55@onfswFileC
	mov	eax, DWORD PTR _path$[ebp]
$LN80@onfswFileC:
	push	4
	push	2
	push	eax
	call	?deallocate@QArrayData@@SAXPAU1@II@Z	; QArrayData::deallocate
	add	esp, 12					; 0000000cH
$LN55@onfswFileC:
	mov	ecx, DWORD PTR __$EHRec$[ebp]
	mov	DWORD PTR fs:0, ecx
	pop	ecx
	pop	edi
	pop	esi
	pop	ebx
	mov	esp, ebp
	pop	ebp
	ret	4
_TEXT	ENDS
;	COMDAT text$x
text$x	SEGMENT
__unwindfunclet$?onfswFileChanged@ActionReceiver@@AAEXVQString@@@Z$0:
	lea	ecx, DWORD PTR _path$[ebp]
	jmp	??1QString@@QAE@XZ			; QString::~QString
__unwindfunclet$?onfswFileChanged@ActionReceiver@@AAEXVQString@@@Z$1:
	lea	ecx, DWORD PTR _thread$2[ebp]
	jmp	??1XThread@@QAE@XZ			; XThread::~XThread
__unwindfunclet$?onfswFileChanged@ActionReceiver@@AAEXVQString@@@Z$2:
	lea	ecx, DWORD PTR _pbtext$3[ebp]
	jmp	??1QByteArray@@QAE@XZ			; QByteArray::~QByteArray
__unwindfunclet$?onfswFileChanged@ActionReceiver@@AAEXVQString@@@Z$9:
	call	___std_terminate
	ret	0
__ehhandler$?onfswFileChanged@ActionReceiver@@AAEXVQString@@@Z:
	mov	edx, DWORD PTR [esp+8]
	lea	eax, DWORD PTR [edx+12]
	mov	ecx, DWORD PTR [edx-40]
	xor	ecx, eax
	call	@__security_check_cookie@4
	mov	eax, OFFSET __ehfuncinfo$?onfswFileChanged@ActionReceiver@@AAEXVQString@@@Z
	jmp	___CxxFrameHandler3
text$x	ENDS
?onfswFileChanged@ActionReceiver@@AAEXVQString@@@Z ENDP	; ActionReceiver::onfswFileChanged
; Function compile flags: /Ogtpy
;	COMDAT ?onfswDirectoryChanged@ActionReceiver@@AAEXVQString@@@Z
_TEXT	SEGMENT
_thread$2 = -32						; size = 8
_objectData$1$ = -24					; size = 4
_pbtext$3 = -20						; size = 4
__$EHRec$ = -12						; size = 12
_path$ = 8						; size = 4
?onfswDirectoryChanged@ActionReceiver@@AAEXVQString@@@Z PROC ; ActionReceiver::onfswDirectoryChanged, COMDAT
; _this$ = ecx
; File e:\developments\cadaqs\canamespace\castudio\xcross\xlang\xlang\xlibrarys\qxlibrary\qxlibrary\qxapplication.h
; Line 412
	push	ebp
	mov	ebp, esp
	push	-1
	push	__ehhandler$?onfswDirectoryChanged@ActionReceiver@@AAEXVQString@@@Z
	mov	eax, DWORD PTR fs:0
	push	eax
	sub	esp, 24					; 00000018H
	push	ebx
	push	esi
	push	edi
	mov	eax, DWORD PTR ___security_cookie
	xor	eax, ebp
	push	eax
	lea	eax, DWORD PTR __$EHRec$[ebp]
	mov	DWORD PTR fs:0, eax
	mov	DWORD PTR __$EHRec$[ebp+8], 0
; Line 413
	call	?sender@QObject@@IBEPAV1@XZ		; QObject::sender
	push	eax
	mov	ecx, OFFSET ?staticMetaObject@QObject@@2UQMetaObject@@B ; QObject::staticMetaObject
	call	?cast@QMetaObject@@QBEPAVQObject@@PAV2@@Z ; QMetaObject::cast
; Line 415
	or	ecx, -1
	test	eax, eax
	je	$LN51@onfswDirec
; Line 416
	push	256					; 00000100H
	mov	ecx, eax
	call	?userData@QObject@@QBEPAVQObjectUserData@@I@Z ; QObject::userData
	mov	DWORD PTR _objectData$1$[ebp], eax
; Line 418
	test	eax, eax
	je	$LN83@onfswDirec
; Line 419
	cmp	DWORD PTR [eax+4], 0
	je	$LN83@onfswDirec
; Line 420
	mov	BYTE PTR _thread$2[ebp+4], 0
	call	?currentThreadId@QThread@@SAPAXXZ	; QThread::currentThreadId
	cmp	eax, DWORD PTR ?ui_thread_id@@3PAXA	; ui_thread_id
	jne	SHORT $LN14@onfswDirec
	mov	eax, DWORD PTR ?ui_thread@@3PAVXContext@@A ; ui_thread
	jmp	SHORT $LN85@onfswDirec
$LN14@onfswDirec:
	mov	ecx, DWORD PTR ?gs_env@@3PAVXNLEnv@@A	; gs_env
	lea	edx, DWORD PTR _thread$2[ebp+4]
	push	edx
	mov	eax, DWORD PTR [ecx]
	call	DWORD PTR [eax+60]
$LN85@onfswDirec:
	mov	DWORD PTR _thread$2[ebp], eax
	mov	BYTE PTR __$EHRec$[ebp+8], 1
; Line 421
	mov	ecx, DWORD PTR ?gs_env@@3PAVXNLEnv@@A	; gs_env
	mov	eax, DWORD PTR [ecx]
	call	DWORD PTR [eax+160]
	mov	ebx, eax
; Line 422
	lea	ecx, DWORD PTR _path$[ebp]
	lea	eax, DWORD PTR _pbtext$3[ebp]
	push	eax
	call	?toUtf8@QString@@QGBE?AVQByteArray@@XZ	; QString::toUtf8
	mov	BYTE PTR __$EHRec$[ebp+8], 2
; Line 423
	mov	ecx, DWORD PTR _pbtext$3[ebp]
	mov	eax, DWORD PTR ?gs_env@@3PAVXNLEnv@@A	; gs_env
	mov	esi, DWORD PTR _thread$2[ebp]
	push	DWORD PTR [ecx+4]
	mov	edi, DWORD PTR [eax]
	lea	ecx, DWORD PTR _pbtext$3[ebp]
	call	?data@QByteArray@@QAEPADXZ		; QByteArray::data
	mov	ecx, DWORD PTR ?gs_env@@3PAVXNLEnv@@A	; gs_env
	push	eax
	push	ebx
	push	esi
	call	DWORD PTR [edi+84]
; Line 424
	mov	eax, DWORD PTR ?methodIdent@@3PAUXIDENT@@A ; methodIdent
	push	ebx
	push	DWORD PTR [eax+2276]
	mov	eax, DWORD PTR _objectData$1$[ebp]
	push	DWORD PTR [eax+4]
	push	DWORD PTR _thread$2[ebp]
	call	??$void_invoke@PAVXObject@@$$V@XNLEnv@@QAEXPAVXContext@@PAVXObject@@H1@Z ; XNLEnv::void_invoke<XObject *>
; Line 425
	mov	ecx, DWORD PTR ?gs_env@@3PAVXNLEnv@@A	; gs_env
	push	ebx
	mov	eax, DWORD PTR [ecx]
	call	DWORD PTR [eax+72]
; Line 426
	mov	eax, DWORD PTR _pbtext$3[ebp]
	mov	ecx, DWORD PTR [eax]
	test	ecx, ecx
	je	SHORT $LN79@onfswDirec
	cmp	ecx, -1
	je	SHORT $LN26@onfswDirec
	or	ecx, -1
	lock	 xadd	 DWORD PTR [eax], ecx
	setne	al
	test	al, al
	jne	SHORT $LN26@onfswDirec
	mov	eax, DWORD PTR _pbtext$3[ebp]
$LN79@onfswDirec:
	push	4
	push	1
	push	eax
	call	?deallocate@QArrayData@@SAXPAU1@II@Z	; QArrayData::deallocate
	add	esp, 12					; 0000000cH
$LN26@onfswDirec:
	mov	BYTE PTR __$EHRec$[ebp+8], 3
	cmp	BYTE PTR _thread$2[ebp+4], 0
	je	SHORT $LN83@onfswDirec
	mov	ecx, DWORD PTR ?gs_env@@3PAVXNLEnv@@A	; gs_env
	push	DWORD PTR _thread$2[ebp]
	mov	eax, DWORD PTR [ecx]
	call	DWORD PTR [eax+64]
$LN83@onfswDirec:
	or	ecx, -1
$LN51@onfswDirec:
; Line 429
	mov	eax, DWORD PTR _path$[ebp]
	mov	edx, DWORD PTR [eax]
	test	edx, edx
	je	SHORT $LN80@onfswDirec
	cmp	edx, -1
	je	SHORT $LN55@onfswDirec
	lock	 xadd	 DWORD PTR [eax], ecx
	dec	ecx
	setne	al
	test	al, al
	jne	SHORT $LN55@onfswDirec
	mov	eax, DWORD PTR _path$[ebp]
$LN80@onfswDirec:
	push	4
	push	2
	push	eax
	call	?deallocate@QArrayData@@SAXPAU1@II@Z	; QArrayData::deallocate
	add	esp, 12					; 0000000cH
$LN55@onfswDirec:
	mov	ecx, DWORD PTR __$EHRec$[ebp]
	mov	DWORD PTR fs:0, ecx
	pop	ecx
	pop	edi
	pop	esi
	pop	ebx
	mov	esp, ebp
	pop	ebp
	ret	4
_TEXT	ENDS
;	COMDAT text$x
text$x	SEGMENT
__unwindfunclet$?onfswDirectoryChanged@ActionReceiver@@AAEXVQString@@@Z$0:
	lea	ecx, DWORD PTR _path$[ebp]
	jmp	??1QString@@QAE@XZ			; QString::~QString
__unwindfunclet$?onfswDirectoryChanged@ActionReceiver@@AAEXVQString@@@Z$1:
	lea	ecx, DWORD PTR _thread$2[ebp]
	jmp	??1XThread@@QAE@XZ			; XThread::~XThread
__unwindfunclet$?onfswDirectoryChanged@ActionReceiver@@AAEXVQString@@@Z$2:
	lea	ecx, DWORD PTR _pbtext$3[ebp]
	jmp	??1QByteArray@@QAE@XZ			; QByteArray::~QByteArray
__unwindfunclet$?onfswDirectoryChanged@ActionReceiver@@AAEXVQString@@@Z$9:
	call	___std_terminate
	ret	0
__ehhandler$?onfswDirectoryChanged@ActionReceiver@@AAEXVQString@@@Z:
	mov	edx, DWORD PTR [esp+8]
	lea	eax, DWORD PTR [edx+12]
	mov	ecx, DWORD PTR [edx-40]
	xor	ecx, eax
	call	@__security_check_cookie@4
	mov	eax, OFFSET __ehfuncinfo$?onfswDirectoryChanged@ActionReceiver@@AAEXVQString@@@Z
	jmp	___CxxFrameHandler3
text$x	ENDS
?onfswDirectoryChanged@ActionReceiver@@AAEXVQString@@@Z ENDP ; ActionReceiver::onfswDirectoryChanged
; Function compile flags: /Ogtpy
;	COMDAT ?onCurrentIndexChanged@ActionReceiver@@AAEXH@Z
_TEXT	SEGMENT
_thread$2 = -24						; size = 8
__$EHRec$ = -12						; size = 12
_index$ = 8						; size = 4
?onCurrentIndexChanged@ActionReceiver@@AAEXH@Z PROC	; ActionReceiver::onCurrentIndexChanged, COMDAT
; _this$ = ecx
; File e:\developments\cadaqs\canamespace\castudio\xcross\xlang\xlang\xlibrarys\qxlibrary\qxlibrary\qxapplication.h
; Line 431
	push	ebp
	mov	ebp, esp
	push	-1
	push	__ehhandler$?onCurrentIndexChanged@ActionReceiver@@AAEXH@Z
	mov	eax, DWORD PTR fs:0
	push	eax
	sub	esp, 12					; 0000000cH
	push	esi
	push	edi
	mov	eax, DWORD PTR ___security_cookie
	xor	eax, ebp
	push	eax
	lea	eax, DWORD PTR __$EHRec$[ebp]
	mov	DWORD PTR fs:0, eax
; Line 432
	call	?sender@QObject@@IBEPAV1@XZ		; QObject::sender
	push	eax
	mov	ecx, OFFSET ?staticMetaObject@QObject@@2UQMetaObject@@B ; QObject::staticMetaObject
	call	?cast@QMetaObject@@QBEPAVQObject@@PAV2@@Z ; QMetaObject::cast
; Line 434
	test	eax, eax
	je	$LN20@onCurrentI
; Line 435
	push	256					; 00000100H
	mov	ecx, eax
	call	?userData@QObject@@QBEPAVQObjectUserData@@I@Z ; QObject::userData
	mov	edi, eax
; Line 437
	test	edi, edi
	je	$LN20@onCurrentI
; Line 438
	cmp	DWORD PTR [edi+4], 0
	je	$LN20@onCurrentI
; Line 439
	mov	BYTE PTR _thread$2[ebp+4], 0
	call	?currentThreadId@QThread@@SAPAXXZ	; QThread::currentThreadId
	cmp	eax, DWORD PTR ?ui_thread_id@@3PAXA	; ui_thread_id
	jne	SHORT $LN12@onCurrentI
	mov	eax, DWORD PTR ?ui_thread@@3PAVXContext@@A ; ui_thread
	jmp	SHORT $LN24@onCurrentI
$LN12@onCurrentI:
	mov	ecx, DWORD PTR ?gs_env@@3PAVXNLEnv@@A	; gs_env
	lea	edx, DWORD PTR _thread$2[ebp+4]
	push	edx
	mov	eax, DWORD PTR [ecx]
	call	DWORD PTR [eax+60]
$LN24@onCurrentI:
	mov	DWORD PTR _thread$2[ebp], eax
	mov	DWORD PTR __$EHRec$[ebp+8], 0
; Line 440
	mov	ecx, DWORD PTR ?gs_env@@3PAVXNLEnv@@A	; gs_env
	mov	eax, DWORD PTR [ecx]
	call	DWORD PTR [eax+160]
; Line 441
	mov	ecx, DWORD PTR ?gs_env@@3PAVXNLEnv@@A	; gs_env
	mov	esi, eax
	push	DWORD PTR _index$[ebp]
	push	esi
	mov	edx, DWORD PTR [ecx]
	call	DWORD PTR [edx+100]
; Line 442
	mov	eax, DWORD PTR ?methodIdent@@3PAUXIDENT@@A ; methodIdent
	push	esi
	push	DWORD PTR [eax+2260]
	push	DWORD PTR [edi+4]
	push	DWORD PTR _thread$2[ebp]
	call	??$void_invoke@PAVXObject@@$$V@XNLEnv@@QAEXPAVXContext@@PAVXObject@@H1@Z ; XNLEnv::void_invoke<XObject *>
; Line 443
	mov	ecx, DWORD PTR ?gs_env@@3PAVXNLEnv@@A	; gs_env
	push	esi
	mov	eax, DWORD PTR [ecx]
	call	DWORD PTR [eax+72]
; Line 444
	mov	DWORD PTR __$EHRec$[ebp+8], 1
	cmp	BYTE PTR _thread$2[ebp+4], 0
	je	SHORT $LN20@onCurrentI
	mov	ecx, DWORD PTR ?gs_env@@3PAVXNLEnv@@A	; gs_env
	push	DWORD PTR _thread$2[ebp]
	mov	eax, DWORD PTR [ecx]
	call	DWORD PTR [eax+64]
$LN20@onCurrentI:
; Line 447
	mov	ecx, DWORD PTR __$EHRec$[ebp]
	mov	DWORD PTR fs:0, ecx
	pop	ecx
	pop	edi
	pop	esi
	mov	esp, ebp
	pop	ebp
	ret	4
_TEXT	ENDS
;	COMDAT text$x
text$x	SEGMENT
__unwindfunclet$?onCurrentIndexChanged@ActionReceiver@@AAEXH@Z$0:
	lea	ecx, DWORD PTR _thread$2[ebp]
	jmp	??1XThread@@QAE@XZ			; XThread::~XThread
__unwindfunclet$?onCurrentIndexChanged@ActionReceiver@@AAEXH@Z$1:
	call	___std_terminate
	ret	0
__ehhandler$?onCurrentIndexChanged@ActionReceiver@@AAEXH@Z:
	mov	edx, DWORD PTR [esp+8]
	lea	eax, DWORD PTR [edx+12]
	mov	ecx, DWORD PTR [edx-24]
	xor	ecx, eax
	call	@__security_check_cookie@4
	mov	eax, OFFSET __ehfuncinfo$?onCurrentIndexChanged@ActionReceiver@@AAEXH@Z
	jmp	___CxxFrameHandler3
text$x	ENDS
?onCurrentIndexChanged@ActionReceiver@@AAEXH@Z ENDP	; ActionReceiver::onCurrentIndexChanged
; Function compile flags: /Ogtpy
;	COMDAT ?onAccept@ActionReceiver@@AAEXXZ
_TEXT	SEGMENT
_thread$2 = -20						; size = 8
__$EHRec$ = -12						; size = 12
?onAccept@ActionReceiver@@AAEXXZ PROC			; ActionReceiver::onAccept, COMDAT
; _this$ = ecx
; File e:\developments\cadaqs\canamespace\castudio\xcross\xlang\xlang\xlibrarys\qxlibrary\qxlibrary\qxapplication.h
; Line 450
	push	ebp
	mov	ebp, esp
	push	-1
	push	__ehhandler$?onAccept@ActionReceiver@@AAEXXZ
	mov	eax, DWORD PTR fs:0
	push	eax
	sub	esp, 12					; 0000000cH
	push	esi
	mov	eax, DWORD PTR ___security_cookie
	xor	eax, ebp
	push	eax
	lea	eax, DWORD PTR __$EHRec$[ebp]
	mov	DWORD PTR fs:0, eax
; Line 451
	call	?sender@QObject@@IBEPAV1@XZ		; QObject::sender
	push	eax
	mov	ecx, OFFSET ?staticMetaObject@QObject@@2UQMetaObject@@B ; QObject::staticMetaObject
	call	?cast@QMetaObject@@QBEPAVQObject@@PAV2@@Z ; QMetaObject::cast
; Line 453
	test	eax, eax
	je	SHORT $LN20@onAccept
; Line 454
	push	256					; 00000100H
	mov	ecx, eax
	call	?userData@QObject@@QBEPAVQObjectUserData@@I@Z ; QObject::userData
	mov	esi, eax
; Line 456
	test	esi, esi
	je	SHORT $LN20@onAccept
; Line 457
	cmp	DWORD PTR [esi+4], 0
	je	SHORT $LN20@onAccept
; Line 458
	mov	BYTE PTR _thread$2[ebp+4], 0
	call	?currentThreadId@QThread@@SAPAXXZ	; QThread::currentThreadId
	cmp	eax, DWORD PTR ?ui_thread_id@@3PAXA	; ui_thread_id
	jne	SHORT $LN12@onAccept
	mov	eax, DWORD PTR ?ui_thread@@3PAVXContext@@A ; ui_thread
	jmp	SHORT $LN24@onAccept
$LN12@onAccept:
	mov	ecx, DWORD PTR ?gs_env@@3PAVXNLEnv@@A	; gs_env
	lea	edx, DWORD PTR _thread$2[ebp+4]
	push	edx
	mov	eax, DWORD PTR [ecx]
	call	DWORD PTR [eax+60]
$LN24@onAccept:
	mov	DWORD PTR _thread$2[ebp], eax
	mov	DWORD PTR __$EHRec$[ebp+8], 0
; Line 459
	mov	ecx, DWORD PTR ?methodIdent@@3PAUXIDENT@@A ; methodIdent
	push	DWORD PTR [ecx+1916]
	push	DWORD PTR [esi+4]
	push	eax
	call	?void_invoke@XNLEnv@@QAEXPAVXContext@@PAVXObject@@H@Z ; XNLEnv::void_invoke
; Line 460
	mov	DWORD PTR __$EHRec$[ebp+8], 1
	cmp	BYTE PTR _thread$2[ebp+4], 0
	je	SHORT $LN20@onAccept
	mov	ecx, DWORD PTR ?gs_env@@3PAVXNLEnv@@A	; gs_env
	push	DWORD PTR _thread$2[ebp]
	mov	eax, DWORD PTR [ecx]
	call	DWORD PTR [eax+64]
$LN20@onAccept:
; Line 463
	mov	ecx, DWORD PTR __$EHRec$[ebp]
	mov	DWORD PTR fs:0, ecx
	pop	ecx
	pop	esi
	mov	esp, ebp
	pop	ebp
	ret	0
_TEXT	ENDS
;	COMDAT text$x
text$x	SEGMENT
__unwindfunclet$?onAccept@ActionReceiver@@AAEXXZ$0:
	lea	ecx, DWORD PTR _thread$2[ebp]
	jmp	??1XThread@@QAE@XZ			; XThread::~XThread
__unwindfunclet$?onAccept@ActionReceiver@@AAEXXZ$1:
	call	___std_terminate
	ret	0
__ehhandler$?onAccept@ActionReceiver@@AAEXXZ:
	mov	edx, DWORD PTR [esp+8]
	lea	eax, DWORD PTR [edx+12]
	mov	ecx, DWORD PTR [edx-20]
	xor	ecx, eax
	call	@__security_check_cookie@4
	mov	eax, OFFSET __ehfuncinfo$?onAccept@ActionReceiver@@AAEXXZ
	jmp	___CxxFrameHandler3
text$x	ENDS
?onAccept@ActionReceiver@@AAEXXZ ENDP			; ActionReceiver::onAccept
; Function compile flags: /Ogtpy
;	COMDAT ?onReject@ActionReceiver@@AAEXXZ
_TEXT	SEGMENT
_thread$2 = -20						; size = 8
__$EHRec$ = -12						; size = 12
?onReject@ActionReceiver@@AAEXXZ PROC			; ActionReceiver::onReject, COMDAT
; _this$ = ecx
; File e:\developments\cadaqs\canamespace\castudio\xcross\xlang\xlang\xlibrarys\qxlibrary\qxlibrary\qxapplication.h
; Line 465
	push	ebp
	mov	ebp, esp
	push	-1
	push	__ehhandler$?onReject@ActionReceiver@@AAEXXZ
	mov	eax, DWORD PTR fs:0
	push	eax
	sub	esp, 12					; 0000000cH
	push	esi
	mov	eax, DWORD PTR ___security_cookie
	xor	eax, ebp
	push	eax
	lea	eax, DWORD PTR __$EHRec$[ebp]
	mov	DWORD PTR fs:0, eax
; Line 466
	call	?sender@QObject@@IBEPAV1@XZ		; QObject::sender
	push	eax
	mov	ecx, OFFSET ?staticMetaObject@QObject@@2UQMetaObject@@B ; QObject::staticMetaObject
	call	?cast@QMetaObject@@QBEPAVQObject@@PAV2@@Z ; QMetaObject::cast
; Line 468
	test	eax, eax
	je	SHORT $LN20@onReject
; Line 469
	push	256					; 00000100H
	mov	ecx, eax
	call	?userData@QObject@@QBEPAVQObjectUserData@@I@Z ; QObject::userData
	mov	esi, eax
; Line 471
	test	esi, esi
	je	SHORT $LN20@onReject
; Line 472
	cmp	DWORD PTR [esi+4], 0
	je	SHORT $LN20@onReject
; Line 473
	mov	BYTE PTR _thread$2[ebp+4], 0
	call	?currentThreadId@QThread@@SAPAXXZ	; QThread::currentThreadId
	cmp	eax, DWORD PTR ?ui_thread_id@@3PAXA	; ui_thread_id
	jne	SHORT $LN12@onReject
	mov	eax, DWORD PTR ?ui_thread@@3PAVXContext@@A ; ui_thread
	jmp	SHORT $LN24@onReject
$LN12@onReject:
	mov	ecx, DWORD PTR ?gs_env@@3PAVXNLEnv@@A	; gs_env
	lea	edx, DWORD PTR _thread$2[ebp+4]
	push	edx
	mov	eax, DWORD PTR [ecx]
	call	DWORD PTR [eax+60]
$LN24@onReject:
	mov	DWORD PTR _thread$2[ebp], eax
	mov	DWORD PTR __$EHRec$[ebp+8], 0
; Line 474
	mov	ecx, DWORD PTR ?methodIdent@@3PAUXIDENT@@A ; methodIdent
	push	DWORD PTR [ecx+1924]
	push	DWORD PTR [esi+4]
	push	eax
	call	?void_invoke@XNLEnv@@QAEXPAVXContext@@PAVXObject@@H@Z ; XNLEnv::void_invoke
; Line 475
	mov	DWORD PTR __$EHRec$[ebp+8], 1
	cmp	BYTE PTR _thread$2[ebp+4], 0
	je	SHORT $LN20@onReject
	mov	ecx, DWORD PTR ?gs_env@@3PAVXNLEnv@@A	; gs_env
	push	DWORD PTR _thread$2[ebp]
	mov	eax, DWORD PTR [ecx]
	call	DWORD PTR [eax+64]
$LN20@onReject:
; Line 478
	mov	ecx, DWORD PTR __$EHRec$[ebp]
	mov	DWORD PTR fs:0, ecx
	pop	ecx
	pop	esi
	mov	esp, ebp
	pop	ebp
	ret	0
_TEXT	ENDS
;	COMDAT text$x
text$x	SEGMENT
__unwindfunclet$?onReject@ActionReceiver@@AAEXXZ$0:
	lea	ecx, DWORD PTR _thread$2[ebp]
	jmp	??1XThread@@QAE@XZ			; XThread::~XThread
__unwindfunclet$?onReject@ActionReceiver@@AAEXXZ$1:
	call	___std_terminate
	ret	0
__ehhandler$?onReject@ActionReceiver@@AAEXXZ:
	mov	edx, DWORD PTR [esp+8]
	lea	eax, DWORD PTR [edx+12]
	mov	ecx, DWORD PTR [edx-20]
	xor	ecx, eax
	call	@__security_check_cookie@4
	mov	eax, OFFSET __ehfuncinfo$?onReject@ActionReceiver@@AAEXXZ
	jmp	___CxxFrameHandler3
text$x	ENDS
?onReject@ActionReceiver@@AAEXXZ ENDP			; ActionReceiver::onReject
; Function compile flags: /Ogtpy
;	COMDAT ?QSCN_SELCHANGED@ActionReceiver@@AAEX_N@Z
_TEXT	SEGMENT
_thread$2 = -24						; size = 8
__$EHRec$ = -12						; size = 12
_yes$ = 8						; size = 1
?QSCN_SELCHANGED@ActionReceiver@@AAEX_N@Z PROC		; ActionReceiver::QSCN_SELCHANGED, COMDAT
; _this$ = ecx
; File e:\developments\cadaqs\canamespace\castudio\xcross\xlang\xlang\xlibrarys\qxlibrary\qxlibrary\qxapplication.h
; Line 481
	push	ebp
	mov	ebp, esp
	push	-1
	push	__ehhandler$?QSCN_SELCHANGED@ActionReceiver@@AAEX_N@Z
	mov	eax, DWORD PTR fs:0
	push	eax
	sub	esp, 12					; 0000000cH
	push	esi
	push	edi
	mov	eax, DWORD PTR ___security_cookie
	xor	eax, ebp
	push	eax
	lea	eax, DWORD PTR __$EHRec$[ebp]
	mov	DWORD PTR fs:0, eax
; Line 482
	call	?sender@QObject@@IBEPAV1@XZ		; QObject::sender
	push	eax
	mov	ecx, OFFSET ?staticMetaObject@QObject@@2UQMetaObject@@B ; QObject::staticMetaObject
	call	?cast@QMetaObject@@QBEPAVQObject@@PAV2@@Z ; QMetaObject::cast
; Line 484
	test	eax, eax
	je	$LN20@QSCN_SELCH
; Line 485
	push	256					; 00000100H
	mov	ecx, eax
	call	?userData@QObject@@QBEPAVQObjectUserData@@I@Z ; QObject::userData
	mov	edi, eax
; Line 487
	test	edi, edi
	je	$LN20@QSCN_SELCH
; Line 488
	cmp	DWORD PTR [edi+4], 0
	je	$LN20@QSCN_SELCH
; Line 489
	mov	BYTE PTR _thread$2[ebp+4], 0
	call	?currentThreadId@QThread@@SAPAXXZ	; QThread::currentThreadId
	cmp	eax, DWORD PTR ?ui_thread_id@@3PAXA	; ui_thread_id
	jne	SHORT $LN12@QSCN_SELCH
	mov	eax, DWORD PTR ?ui_thread@@3PAVXContext@@A ; ui_thread
	jmp	SHORT $LN24@QSCN_SELCH
$LN12@QSCN_SELCH:
	mov	ecx, DWORD PTR ?gs_env@@3PAVXNLEnv@@A	; gs_env
	lea	edx, DWORD PTR _thread$2[ebp+4]
	push	edx
	mov	eax, DWORD PTR [ecx]
	call	DWORD PTR [eax+60]
$LN24@QSCN_SELCH:
	mov	DWORD PTR _thread$2[ebp], eax
	mov	DWORD PTR __$EHRec$[ebp+8], 0
; Line 490
	mov	ecx, DWORD PTR ?gs_env@@3PAVXNLEnv@@A	; gs_env
	mov	eax, DWORD PTR [ecx]
	call	DWORD PTR [eax+160]
; Line 491
	mov	ecx, DWORD PTR ?gs_env@@3PAVXNLEnv@@A	; gs_env
	mov	esi, eax
	push	DWORD PTR _yes$[ebp]
	push	esi
	mov	edx, DWORD PTR [ecx]
	call	DWORD PTR [edx+88]
; Line 492
	mov	eax, DWORD PTR ?methodIdent@@3PAUXIDENT@@A ; methodIdent
	push	esi
	push	DWORD PTR [eax+2148]
	push	DWORD PTR [edi+4]
	push	DWORD PTR _thread$2[ebp]
	call	??$void_invoke@PAVXObject@@$$V@XNLEnv@@QAEXPAVXContext@@PAVXObject@@H1@Z ; XNLEnv::void_invoke<XObject *>
; Line 493
	mov	ecx, DWORD PTR ?gs_env@@3PAVXNLEnv@@A	; gs_env
	push	esi
	mov	eax, DWORD PTR [ecx]
	call	DWORD PTR [eax+72]
; Line 494
	mov	DWORD PTR __$EHRec$[ebp+8], 1
	cmp	BYTE PTR _thread$2[ebp+4], 0
	je	SHORT $LN20@QSCN_SELCH
	mov	ecx, DWORD PTR ?gs_env@@3PAVXNLEnv@@A	; gs_env
	push	DWORD PTR _thread$2[ebp]
	mov	eax, DWORD PTR [ecx]
	call	DWORD PTR [eax+64]
$LN20@QSCN_SELCH:
; Line 497
	mov	ecx, DWORD PTR __$EHRec$[ebp]
	mov	DWORD PTR fs:0, ecx
	pop	ecx
	pop	edi
	pop	esi
	mov	esp, ebp
	pop	ebp
	ret	4
_TEXT	ENDS
;	COMDAT text$x
text$x	SEGMENT
__unwindfunclet$?QSCN_SELCHANGED@ActionReceiver@@AAEX_N@Z$0:
	lea	ecx, DWORD PTR _thread$2[ebp]
	jmp	??1XThread@@QAE@XZ			; XThread::~XThread
__unwindfunclet$?QSCN_SELCHANGED@ActionReceiver@@AAEX_N@Z$1:
	call	___std_terminate
	ret	0
__ehhandler$?QSCN_SELCHANGED@ActionReceiver@@AAEX_N@Z:
	mov	edx, DWORD PTR [esp+8]
	lea	eax, DWORD PTR [edx+12]
	mov	ecx, DWORD PTR [edx-24]
	xor	ecx, eax
	call	@__security_check_cookie@4
	mov	eax, OFFSET __ehfuncinfo$?QSCN_SELCHANGED@ActionReceiver@@AAEX_N@Z
	jmp	___CxxFrameHandler3
text$x	ENDS
?QSCN_SELCHANGED@ActionReceiver@@AAEX_N@Z ENDP		; ActionReceiver::QSCN_SELCHANGED
; Function compile flags: /Ogtpy
;	COMDAT ?slotGetCallbackData@ActionReceiver@@AAEXUCallbackInfo@LimeReport@@AAVQVariant@@@Z
_TEXT	SEGMENT
$T2 = -88						; size = 16
_bv$3 = -72						; size = 8
_bv$4 = -64						; size = 8
_thread$5 = -52						; size = 8
$T6 = -44						; size = 4
_sv$7 = -40						; size = 4
_slen$8 = -36						; size = 4
_bv$9 = -32						; size = 4
_btdata$10 = -28					; size = 4
_bv$11 = -24						; size = 2
_bv$12 = -20						; size = 2
_bv$13 = -14						; size = 1
_bv$14 = -13						; size = 1
__$EHRec$ = -12						; size = 12
_info$ = 8						; size = 12
_data$ = 20						; size = 4
?slotGetCallbackData@ActionReceiver@@AAEXUCallbackInfo@LimeReport@@AAVQVariant@@@Z PROC ; ActionReceiver::slotGetCallbackData, COMDAT
; _this$ = ecx
; File e:\developments\cadaqs\canamespace\castudio\xcross\xlang\xlang\xlibrarys\qxlibrary\qxlibrary\qxapplication.h
; Line 499
	push	ebp
	mov	ebp, esp
	push	-1
	push	__ehhandler$?slotGetCallbackData@ActionReceiver@@AAEXUCallbackInfo@LimeReport@@AAVQVariant@@@Z
	mov	eax, DWORD PTR fs:0
	push	eax
	sub	esp, 76					; 0000004cH
	push	ebx
	push	esi
	push	edi
	mov	eax, DWORD PTR ___security_cookie
	xor	eax, ebp
	push	eax
	lea	eax, DWORD PTR __$EHRec$[ebp]
	mov	DWORD PTR fs:0, eax
	mov	DWORD PTR __$EHRec$[ebp+8], 0
; Line 500
	call	?sender@QObject@@IBEPAV1@XZ		; QObject::sender
	push	eax
	mov	ecx, OFFSET ?staticMetaObject@QObject@@2UQMetaObject@@B ; QObject::staticMetaObject
	call	?cast@QMetaObject@@QBEPAVQObject@@PAV2@@Z ; QMetaObject::cast
; Line 502
	or	ebx, -1
	test	eax, eax
	je	$LN92@slotGetCal
; Line 503
	push	256					; 00000100H
	mov	ecx, eax
	call	?userData@QObject@@QBEPAVQObjectUserData@@I@Z ; QObject::userData
	mov	esi, eax
; Line 505
	test	esi, esi
	je	$LN92@slotGetCal
; Line 506
	cmp	DWORD PTR [esi+4], 0
	je	$LN92@slotGetCal
; Line 507
	mov	BYTE PTR _thread$5[ebp+4], 0
	call	?currentThreadId@QThread@@SAPAXXZ	; QThread::currentThreadId
	cmp	eax, DWORD PTR ?ui_thread_id@@3PAXA	; ui_thread_id
	jne	SHORT $LN35@slotGetCal
	mov	eax, DWORD PTR ?ui_thread@@3PAVXContext@@A ; ui_thread
	jmp	SHORT $LN126@slotGetCal
$LN35@slotGetCal:
	mov	ecx, DWORD PTR ?gs_env@@3PAVXNLEnv@@A	; gs_env
	lea	edx, DWORD PTR _thread$5[ebp+4]
	push	edx
	mov	eax, DWORD PTR [ecx]
	call	DWORD PTR [eax+60]
$LN126@slotGetCal:
	mov	DWORD PTR _thread$5[ebp], eax
; Line 508
	lea	eax, DWORD PTR _btdata$10[ebp]
	mov	BYTE PTR __$EHRec$[ebp+8], 1
	push	eax
	lea	ecx, DWORD PTR _info$[ebp+8]
	call	?toUtf8@QString@@QGBE?AVQByteArray@@XZ	; QString::toUtf8
	mov	BYTE PTR __$EHRec$[ebp+8], 2
; Line 509
	lea	ecx, DWORD PTR _btdata$10[ebp]
	mov	esi, DWORD PTR [esi+4]
	mov	edi, DWORD PTR _thread$5[ebp]
	call	?data@QByteArray@@QAEPADXZ		; QByteArray::data
	mov	ecx, DWORD PTR ?methodIdent@@3PAUXIDENT@@A ; methodIdent
	push	eax
	push	DWORD PTR _info$[ebp+4]
	push	DWORD PTR _info$[ebp]
	push	ecx
	push	DWORD PTR [ecx+2436]
	mov	ecx, DWORD PTR ?gs_env@@3PAVXNLEnv@@A	; gs_env
	push	esi
	push	edi
	call	??$Invoke_helper@HHHPAD@XNLEnv@@QAEPAVXObject@@PAVXContext@@PAV1@HHHHPAD@Z ; XNLEnv::Invoke_helper<int,int,int,char *>
; Line 511
	mov	ecx, DWORD PTR ?gs_env@@3PAVXNLEnv@@A	; gs_env
	mov	esi, eax
	push	esi
	mov	edx, DWORD PTR [ecx]
	call	DWORD PTR [edx+288]
; Line 513
	cmp	eax, 8
	ja	$LN23@slotGetCal
	jmp	DWORD PTR $LN127@slotGetCal[eax*4]
$LN7@slotGetCal:
; Line 515
	mov	eax, DWORD PTR $T2[ebp+8]
	mov	ecx, DWORD PTR _data$[ebp]
	and	eax, -2147483648			; 80000000H
	or	eax, -2147483648			; 80000000H
	mov	DWORD PTR $T2[ebp], 0
	mov	DWORD PTR $T2[ebp+8], eax
	lea	eax, DWORD PTR $T2[ebp]
	push	eax
	call	??4QVariant@@QAEAAV0@$$QAV0@@Z		; QVariant::operator=
	lea	ecx, DWORD PTR $T2[ebp]
	call	??1QVariant@@QAE@XZ			; QVariant::~QVariant
; Line 516
	jmp	$LN23@slotGetCal
$LN8@slotGetCal:
; Line 520
	mov	ecx, DWORD PTR ?gs_env@@3PAVXNLEnv@@A	; gs_env
	lea	edx, DWORD PTR _bv$14[ebp]
	push	edx
	push	esi
	mov	eax, DWORD PTR [ecx]
	mov	eax, DWORD PTR [eax+116]
	call	eax
	test	al, al
	je	$LN23@slotGetCal
; Line 521
	mov	ecx, DWORD PTR _data$[ebp]
	lea	edx, DWORD PTR _bv$14[ebp]
	call	??$qVariantSetValue@E@@YAXAAVQVariant@@ABE@Z ; qVariantSetValue<unsigned char>
; Line 524
	jmp	$LN23@slotGetCal
$LN10@slotGetCal:
; Line 528
	mov	ecx, DWORD PTR ?gs_env@@3PAVXNLEnv@@A	; gs_env
	lea	edx, DWORD PTR _bv$12[ebp]
	push	edx
	push	esi
	mov	eax, DWORD PTR [ecx]
	mov	eax, DWORD PTR [eax+120]
	call	eax
	test	al, al
	je	$LN23@slotGetCal
; Line 529
	mov	ecx, DWORD PTR _data$[ebp]
	lea	edx, DWORD PTR _bv$12[ebp]
	call	??$qVariantSetValue@G@@YAXAAVQVariant@@ABG@Z ; qVariantSetValue<unsigned short>
; Line 532
	jmp	$LN23@slotGetCal
$LN12@slotGetCal:
; Line 536
	mov	ecx, DWORD PTR ?gs_env@@3PAVXNLEnv@@A	; gs_env
	lea	edx, DWORD PTR _bv$11[ebp]
	push	edx
	push	esi
	mov	eax, DWORD PTR [ecx]
	mov	eax, DWORD PTR [eax+124]
	call	eax
	test	al, al
	je	$LN23@slotGetCal
; Line 537
	mov	ecx, DWORD PTR _data$[ebp]
	lea	edx, DWORD PTR _bv$11[ebp]
	call	??$qVariantSetValue@F@@YAXAAVQVariant@@ABF@Z ; qVariantSetValue<short>
; Line 540
	jmp	$LN23@slotGetCal
$LN14@slotGetCal:
; Line 544
	mov	ecx, DWORD PTR ?gs_env@@3PAVXNLEnv@@A	; gs_env
	lea	edx, DWORD PTR _bv$9[ebp]
	push	edx
	push	esi
	mov	eax, DWORD PTR [ecx]
	mov	eax, DWORD PTR [eax+128]
	call	eax
	test	al, al
	je	$LN23@slotGetCal
; Line 545
	mov	ecx, DWORD PTR _data$[ebp]
	lea	edx, DWORD PTR _bv$9[ebp]
	call	??$qVariantSetValue@H@@YAXAAVQVariant@@ABH@Z ; qVariantSetValue<int>
; Line 548
	jmp	$LN23@slotGetCal
$LN16@slotGetCal:
; Line 552
	mov	ecx, DWORD PTR ?gs_env@@3PAVXNLEnv@@A	; gs_env
	lea	edx, DWORD PTR _bv$4[ebp]
	push	edx
	push	esi
	mov	eax, DWORD PTR [ecx]
	mov	eax, DWORD PTR [eax+132]
	call	eax
	test	al, al
	je	$LN23@slotGetCal
; Line 553
	mov	ecx, DWORD PTR _data$[ebp]
	lea	edx, DWORD PTR _bv$4[ebp]
	call	??$qVariantSetValue@_J@@YAXAAVQVariant@@AB_J@Z ; qVariantSetValue<__int64>
; Line 556
	jmp	$LN23@slotGetCal
$LN18@slotGetCal:
; Line 560
	mov	ecx, DWORD PTR ?gs_env@@3PAVXNLEnv@@A	; gs_env
	lea	edx, DWORD PTR _bv$3[ebp]
	push	edx
	push	esi
	mov	eax, DWORD PTR [ecx]
	mov	eax, DWORD PTR [eax+136]
	call	eax
	test	al, al
	je	SHORT $LN23@slotGetCal
; Line 561
	mov	ecx, DWORD PTR _data$[ebp]
	lea	edx, DWORD PTR _bv$3[ebp]
	call	??$qVariantSetValue@N@@YAXAAVQVariant@@ABN@Z ; qVariantSetValue<double>
; Line 564
	jmp	SHORT $LN23@slotGetCal
$LN20@slotGetCal:
; Line 568
	mov	ecx, DWORD PTR ?gs_env@@3PAVXNLEnv@@A	; gs_env
	lea	edx, DWORD PTR _bv$13[ebp]
	push	edx
	push	esi
	mov	eax, DWORD PTR [ecx]
	mov	eax, DWORD PTR [eax+140]
	call	eax
	test	al, al
	je	SHORT $LN23@slotGetCal
; Line 569
	mov	ecx, DWORD PTR _data$[ebp]
	lea	edx, DWORD PTR _bv$13[ebp]
	call	??$qVariantSetValue@_N@@YAXAAVQVariant@@AB_N@Z ; qVariantSetValue<bool>
; Line 572
	jmp	SHORT $LN23@slotGetCal
$LN22@slotGetCal:
; Line 577
	mov	ecx, DWORD PTR ?gs_env@@3PAVXNLEnv@@A	; gs_env
	lea	edx, DWORD PTR _slen$8[ebp]
	push	edx
	lea	edx, DWORD PTR _sv$7[ebp]
	push	edx
	mov	eax, DWORD PTR [ecx]
	push	esi
	mov	eax, DWORD PTR [eax+144]
	call	eax
	test	al, al
	je	SHORT $LN23@slotGetCal
; Line 578
	push	DWORD PTR _slen$8[ebp]
	lea	eax, DWORD PTR $T6[ebp]
	push	DWORD PTR _sv$7[ebp]
	push	eax
	call	?fromUtf8@QString@@SA?AV1@PBDH@Z	; QString::fromUtf8
	add	esp, 12					; 0000000cH
	mov	ecx, DWORD PTR _data$[ebp]
	mov	edx, eax
	mov	BYTE PTR __$EHRec$[ebp+8], 3
	call	??$qVariantSetValue@VQString@@@@YAXAAVQVariant@@ABVQString@@@Z ; qVariantSetValue<QString>
	lea	ecx, DWORD PTR $T6[ebp]
	mov	BYTE PTR __$EHRec$[ebp+8], 2
	call	??1QString@@QAE@XZ			; QString::~QString
$LN23@slotGetCal:
; Line 583
	mov	ecx, DWORD PTR ?gs_env@@3PAVXNLEnv@@A	; gs_env
	push	esi
	mov	eax, DWORD PTR [ecx]
	call	DWORD PTR [eax+72]
; Line 584
	mov	eax, DWORD PTR _btdata$10[ebp]
	mov	ecx, DWORD PTR [eax]
	test	ecx, ecx
	je	SHORT $LN123@slotGetCal
	cmp	ecx, -1
	je	SHORT $LN67@slotGetCal
	mov	ecx, ebx
	lock	 xadd	 DWORD PTR [eax], ecx
	setne	al
	test	al, al
	jne	SHORT $LN67@slotGetCal
	mov	eax, DWORD PTR _btdata$10[ebp]
$LN123@slotGetCal:
	push	4
	push	1
	push	eax
	call	?deallocate@QArrayData@@SAXPAU1@II@Z	; QArrayData::deallocate
	add	esp, 12					; 0000000cH
$LN67@slotGetCal:
	mov	BYTE PTR __$EHRec$[ebp+8], 4
	cmp	BYTE PTR _thread$5[ebp+4], 0
	je	SHORT $LN92@slotGetCal
	mov	ecx, DWORD PTR ?gs_env@@3PAVXNLEnv@@A	; gs_env
	push	DWORD PTR _thread$5[ebp]
	mov	eax, DWORD PTR [ecx]
	call	DWORD PTR [eax+64]
$LN92@slotGetCal:
; Line 587
	mov	eax, DWORD PTR _info$[ebp+8]
	mov	ecx, DWORD PTR [eax]
	test	ecx, ecx
	je	SHORT $LN124@slotGetCal
	cmp	ecx, -1
	je	SHORT $LN99@slotGetCal
	lock	 xadd	 DWORD PTR [eax], ebx
	dec	ebx
	setne	al
	test	al, al
	jne	SHORT $LN99@slotGetCal
	mov	eax, DWORD PTR _info$[ebp+8]
$LN124@slotGetCal:
	push	4
	push	2
	push	eax
	call	?deallocate@QArrayData@@SAXPAU1@II@Z	; QArrayData::deallocate
	add	esp, 12					; 0000000cH
$LN99@slotGetCal:
	mov	ecx, DWORD PTR __$EHRec$[ebp]
	mov	DWORD PTR fs:0, ecx
	pop	ecx
	pop	edi
	pop	esi
	pop	ebx
	mov	esp, ebp
	pop	ebp
	ret	16					; 00000010H
	npad	2
$LN127@slotGetCal:
	DD	$LN7@slotGetCal
	DD	$LN8@slotGetCal
	DD	$LN10@slotGetCal
	DD	$LN12@slotGetCal
	DD	$LN14@slotGetCal
	DD	$LN16@slotGetCal
	DD	$LN18@slotGetCal
	DD	$LN20@slotGetCal
	DD	$LN22@slotGetCal
_TEXT	ENDS
;	COMDAT text$x
text$x	SEGMENT
__unwindfunclet$?slotGetCallbackData@ActionReceiver@@AAEXUCallbackInfo@LimeReport@@AAVQVariant@@@Z$0:
	lea	ecx, DWORD PTR _info$[ebp]
	jmp	??1CallbackInfo@LimeReport@@QAE@XZ
__unwindfunclet$?slotGetCallbackData@ActionReceiver@@AAEXUCallbackInfo@LimeReport@@AAVQVariant@@@Z$1:
	lea	ecx, DWORD PTR _thread$5[ebp]
	jmp	??1XThread@@QAE@XZ			; XThread::~XThread
__unwindfunclet$?slotGetCallbackData@ActionReceiver@@AAEXUCallbackInfo@LimeReport@@AAVQVariant@@@Z$2:
	lea	ecx, DWORD PTR _btdata$10[ebp]
	jmp	??1QByteArray@@QAE@XZ			; QByteArray::~QByteArray
__unwindfunclet$?slotGetCallbackData@ActionReceiver@@AAEXUCallbackInfo@LimeReport@@AAVQVariant@@@Z$4:
	lea	ecx, DWORD PTR $T6[ebp]
	jmp	??1QString@@QAE@XZ			; QString::~QString
__unwindfunclet$?slotGetCallbackData@ActionReceiver@@AAEXUCallbackInfo@LimeReport@@AAVQVariant@@@Z$13:
	call	___std_terminate
	ret	0
__ehhandler$?slotGetCallbackData@ActionReceiver@@AAEXUCallbackInfo@LimeReport@@AAVQVariant@@@Z:
	mov	edx, DWORD PTR [esp+8]
	lea	eax, DWORD PTR [edx+12]
	mov	ecx, DWORD PTR [edx-92]
	xor	ecx, eax
	call	@__security_check_cookie@4
	mov	eax, OFFSET __ehfuncinfo$?slotGetCallbackData@ActionReceiver@@AAEXUCallbackInfo@LimeReport@@AAVQVariant@@@Z
	jmp	___CxxFrameHandler3
text$x	ENDS
?slotGetCallbackData@ActionReceiver@@AAEXUCallbackInfo@LimeReport@@AAVQVariant@@@Z ENDP ; ActionReceiver::slotGetCallbackData
; Function compile flags: /Ogtpy
;	COMDAT ?slotChangePos@ActionReceiver@@AAEXABW4ChangePosType@CallbackInfo@LimeReport@@AA_N@Z
_TEXT	SEGMENT
_thread$2 = -20						; size = 8
__$EHRec$ = -12						; size = 12
_type$ = 8						; size = 4
_result$ = 12						; size = 4
?slotChangePos@ActionReceiver@@AAEXABW4ChangePosType@CallbackInfo@LimeReport@@AA_N@Z PROC ; ActionReceiver::slotChangePos, COMDAT
; _this$ = ecx
; File e:\developments\cadaqs\canamespace\castudio\xcross\xlang\xlang\xlibrarys\qxlibrary\qxlibrary\qxapplication.h
; Line 589
	push	ebp
	mov	ebp, esp
	push	-1
	push	__ehhandler$?slotChangePos@ActionReceiver@@AAEXABW4ChangePosType@CallbackInfo@LimeReport@@AA_N@Z
	mov	eax, DWORD PTR fs:0
	push	eax
	sub	esp, 12					; 0000000cH
	push	esi
	mov	eax, DWORD PTR ___security_cookie
	xor	eax, ebp
	push	eax
	lea	eax, DWORD PTR __$EHRec$[ebp]
	mov	DWORD PTR fs:0, eax
; Line 590
	call	?sender@QObject@@IBEPAV1@XZ		; QObject::sender
	push	eax
	mov	ecx, OFFSET ?staticMetaObject@QObject@@2UQMetaObject@@B ; QObject::staticMetaObject
	call	?cast@QMetaObject@@QBEPAVQObject@@PAV2@@Z ; QMetaObject::cast
; Line 592
	test	eax, eax
	je	$LN20@slotChange
; Line 593
	push	256					; 00000100H
	mov	ecx, eax
	call	?userData@QObject@@QBEPAVQObjectUserData@@I@Z ; QObject::userData
	mov	esi, eax
; Line 595
	test	esi, esi
	je	SHORT $LN20@slotChange
; Line 596
	cmp	DWORD PTR [esi+4], 0
	je	SHORT $LN20@slotChange
; Line 597
	mov	BYTE PTR _thread$2[ebp+4], 0
	call	?currentThreadId@QThread@@SAPAXXZ	; QThread::currentThreadId
	cmp	eax, DWORD PTR ?ui_thread_id@@3PAXA	; ui_thread_id
	jne	SHORT $LN12@slotChange
	mov	edx, DWORD PTR ?ui_thread@@3PAVXContext@@A ; ui_thread
	jmp	SHORT $LN24@slotChange
$LN12@slotChange:
	mov	ecx, DWORD PTR ?gs_env@@3PAVXNLEnv@@A	; gs_env
	lea	edx, DWORD PTR _thread$2[ebp+4]
	push	edx
	mov	eax, DWORD PTR [ecx]
	call	DWORD PTR [eax+60]
	mov	edx, eax
$LN24@slotChange:
	mov	DWORD PTR _thread$2[ebp], edx
; Line 598
	mov	ecx, DWORD PTR _type$[ebp]
	mov	DWORD PTR __$EHRec$[ebp+8], 0
	mov	eax, DWORD PTR ?methodIdent@@3PAUXIDENT@@A ; methodIdent
	push	DWORD PTR [ecx]
	push	DWORD PTR [eax+2444]
	push	DWORD PTR [esi+4]
	push	edx
	call	??$bool_Invoke@HH$$V@XNLEnv@@QAE_NPAVXContext@@PAVXObject@@HH@Z ; XNLEnv::bool_Invoke<int,int>
	mov	ecx, DWORD PTR _result$[ebp]
	mov	BYTE PTR [ecx], al
; Line 599
	mov	DWORD PTR __$EHRec$[ebp+8], 1
	cmp	BYTE PTR _thread$2[ebp+4], 0
	je	SHORT $LN20@slotChange
	mov	ecx, DWORD PTR ?gs_env@@3PAVXNLEnv@@A	; gs_env
	push	DWORD PTR _thread$2[ebp]
	mov	eax, DWORD PTR [ecx]
	call	DWORD PTR [eax+64]
$LN20@slotChange:
; Line 602
	mov	ecx, DWORD PTR __$EHRec$[ebp]
	mov	DWORD PTR fs:0, ecx
	pop	ecx
	pop	esi
	mov	esp, ebp
	pop	ebp
	ret	8
_TEXT	ENDS
;	COMDAT text$x
text$x	SEGMENT
__unwindfunclet$?slotChangePos@ActionReceiver@@AAEXABW4ChangePosType@CallbackInfo@LimeReport@@AA_N@Z$0:
	lea	ecx, DWORD PTR _thread$2[ebp]
	jmp	??1XThread@@QAE@XZ			; XThread::~XThread
__unwindfunclet$?slotChangePos@ActionReceiver@@AAEXABW4ChangePosType@CallbackInfo@LimeReport@@AA_N@Z$1:
	call	___std_terminate
	ret	0
__ehhandler$?slotChangePos@ActionReceiver@@AAEXABW4ChangePosType@CallbackInfo@LimeReport@@AA_N@Z:
	mov	edx, DWORD PTR [esp+8]
	lea	eax, DWORD PTR [edx+12]
	mov	ecx, DWORD PTR [edx-20]
	xor	ecx, eax
	call	@__security_check_cookie@4
	mov	eax, OFFSET __ehfuncinfo$?slotChangePos@ActionReceiver@@AAEXABW4ChangePosType@CallbackInfo@LimeReport@@AA_N@Z
	jmp	___CxxFrameHandler3
text$x	ENDS
?slotChangePos@ActionReceiver@@AAEXABW4ChangePosType@CallbackInfo@LimeReport@@AA_N@Z ENDP ; ActionReceiver::slotChangePos
; Function compile flags: /Ogtpy
;	COMDAT ?SCN_AUTOCCANCELLED@ActionReceiver@@AAEXXZ
_TEXT	SEGMENT
_thread$2 = -20						; size = 8
__$EHRec$ = -12						; size = 12
?SCN_AUTOCCANCELLED@ActionReceiver@@AAEXXZ PROC		; ActionReceiver::SCN_AUTOCCANCELLED, COMDAT
; _this$ = ecx
; File e:\developments\cadaqs\canamespace\castudio\xcross\xlang\xlang\xlibrarys\qxlibrary\qxlibrary\qxapplication.h
; Line 604
	push	ebp
	mov	ebp, esp
	push	-1
	push	__ehhandler$?SCN_AUTOCCANCELLED@ActionReceiver@@AAEXXZ
	mov	eax, DWORD PTR fs:0
	push	eax
	sub	esp, 12					; 0000000cH
	push	esi
	mov	eax, DWORD PTR ___security_cookie
	xor	eax, ebp
	push	eax
	lea	eax, DWORD PTR __$EHRec$[ebp]
	mov	DWORD PTR fs:0, eax
; Line 605
	call	?sender@QObject@@IBEPAV1@XZ		; QObject::sender
	push	eax
	mov	ecx, OFFSET ?staticMetaObject@QObject@@2UQMetaObject@@B ; QObject::staticMetaObject
	call	?cast@QMetaObject@@QBEPAVQObject@@PAV2@@Z ; QMetaObject::cast
; Line 607
	test	eax, eax
	je	SHORT $LN20@SCN_AUTOCC
; Line 608
	push	256					; 00000100H
	mov	ecx, eax
	call	?userData@QObject@@QBEPAVQObjectUserData@@I@Z ; QObject::userData
	mov	esi, eax
; Line 610
	test	esi, esi
	je	SHORT $LN20@SCN_AUTOCC
; Line 611
	cmp	DWORD PTR [esi+4], 0
	je	SHORT $LN20@SCN_AUTOCC
; Line 612
	mov	BYTE PTR _thread$2[ebp+4], 0
	call	?currentThreadId@QThread@@SAPAXXZ	; QThread::currentThreadId
	cmp	eax, DWORD PTR ?ui_thread_id@@3PAXA	; ui_thread_id
	jne	SHORT $LN12@SCN_AUTOCC
	mov	eax, DWORD PTR ?ui_thread@@3PAVXContext@@A ; ui_thread
	jmp	SHORT $LN24@SCN_AUTOCC
$LN12@SCN_AUTOCC:
	mov	ecx, DWORD PTR ?gs_env@@3PAVXNLEnv@@A	; gs_env
	lea	edx, DWORD PTR _thread$2[ebp+4]
	push	edx
	mov	eax, DWORD PTR [ecx]
	call	DWORD PTR [eax+60]
$LN24@SCN_AUTOCC:
	mov	DWORD PTR _thread$2[ebp], eax
	mov	DWORD PTR __$EHRec$[ebp+8], 0
; Line 613
	mov	ecx, DWORD PTR ?methodIdent@@3PAUXIDENT@@A ; methodIdent
	push	DWORD PTR [ecx+2156]
	push	DWORD PTR [esi+4]
	push	eax
	call	?void_invoke@XNLEnv@@QAEXPAVXContext@@PAVXObject@@H@Z ; XNLEnv::void_invoke
; Line 614
	mov	DWORD PTR __$EHRec$[ebp+8], 1
	cmp	BYTE PTR _thread$2[ebp+4], 0
	je	SHORT $LN20@SCN_AUTOCC
	mov	ecx, DWORD PTR ?gs_env@@3PAVXNLEnv@@A	; gs_env
	push	DWORD PTR _thread$2[ebp]
	mov	eax, DWORD PTR [ecx]
	call	DWORD PTR [eax+64]
$LN20@SCN_AUTOCC:
; Line 617
	mov	ecx, DWORD PTR __$EHRec$[ebp]
	mov	DWORD PTR fs:0, ecx
	pop	ecx
	pop	esi
	mov	esp, ebp
	pop	ebp
	ret	0
_TEXT	ENDS
;	COMDAT text$x
text$x	SEGMENT
__unwindfunclet$?SCN_AUTOCCANCELLED@ActionReceiver@@AAEXXZ$0:
	lea	ecx, DWORD PTR _thread$2[ebp]
	jmp	??1XThread@@QAE@XZ			; XThread::~XThread
__unwindfunclet$?SCN_AUTOCCANCELLED@ActionReceiver@@AAEXXZ$1:
	call	___std_terminate
	ret	0
__ehhandler$?SCN_AUTOCCANCELLED@ActionReceiver@@AAEXXZ:
	mov	edx, DWORD PTR [esp+8]
	lea	eax, DWORD PTR [edx+12]
	mov	ecx, DWORD PTR [edx-20]
	xor	ecx, eax
	call	@__security_check_cookie@4
	mov	eax, OFFSET __ehfuncinfo$?SCN_AUTOCCANCELLED@ActionReceiver@@AAEXXZ
	jmp	___CxxFrameHandler3
text$x	ENDS
?SCN_AUTOCCANCELLED@ActionReceiver@@AAEXXZ ENDP		; ActionReceiver::SCN_AUTOCCANCELLED
; Function compile flags: /Ogtpy
;	COMDAT ?SCN_AUTOCCHARDELETED@ActionReceiver@@AAEXXZ
_TEXT	SEGMENT
_thread$2 = -20						; size = 8
__$EHRec$ = -12						; size = 12
?SCN_AUTOCCHARDELETED@ActionReceiver@@AAEXXZ PROC	; ActionReceiver::SCN_AUTOCCHARDELETED, COMDAT
; _this$ = ecx
; File e:\developments\cadaqs\canamespace\castudio\xcross\xlang\xlang\xlibrarys\qxlibrary\qxlibrary\qxapplication.h
; Line 619
	push	ebp
	mov	ebp, esp
	push	-1
	push	__ehhandler$?SCN_AUTOCCHARDELETED@ActionReceiver@@AAEXXZ
	mov	eax, DWORD PTR fs:0
	push	eax
	sub	esp, 12					; 0000000cH
	push	esi
	mov	eax, DWORD PTR ___security_cookie
	xor	eax, ebp
	push	eax
	lea	eax, DWORD PTR __$EHRec$[ebp]
	mov	DWORD PTR fs:0, eax
; Line 620
	call	?sender@QObject@@IBEPAV1@XZ		; QObject::sender
	push	eax
	mov	ecx, OFFSET ?staticMetaObject@QObject@@2UQMetaObject@@B ; QObject::staticMetaObject
	call	?cast@QMetaObject@@QBEPAVQObject@@PAV2@@Z ; QMetaObject::cast
; Line 622
	test	eax, eax
	je	SHORT $LN20@SCN_AUTOCC
; Line 623
	push	256					; 00000100H
	mov	ecx, eax
	call	?userData@QObject@@QBEPAVQObjectUserData@@I@Z ; QObject::userData
	mov	esi, eax
; Line 625
	test	esi, esi
	je	SHORT $LN20@SCN_AUTOCC
; Line 626
	cmp	DWORD PTR [esi+4], 0
	je	SHORT $LN20@SCN_AUTOCC
; Line 627
	mov	BYTE PTR _thread$2[ebp+4], 0
	call	?currentThreadId@QThread@@SAPAXXZ	; QThread::currentThreadId
	cmp	eax, DWORD PTR ?ui_thread_id@@3PAXA	; ui_thread_id
	jne	SHORT $LN12@SCN_AUTOCC
	mov	eax, DWORD PTR ?ui_thread@@3PAVXContext@@A ; ui_thread
	jmp	SHORT $LN24@SCN_AUTOCC
$LN12@SCN_AUTOCC:
	mov	ecx, DWORD PTR ?gs_env@@3PAVXNLEnv@@A	; gs_env
	lea	edx, DWORD PTR _thread$2[ebp+4]
	push	edx
	mov	eax, DWORD PTR [ecx]
	call	DWORD PTR [eax+60]
$LN24@SCN_AUTOCC:
	mov	DWORD PTR _thread$2[ebp], eax
	mov	DWORD PTR __$EHRec$[ebp+8], 0
; Line 628
	mov	ecx, DWORD PTR ?methodIdent@@3PAUXIDENT@@A ; methodIdent
	push	DWORD PTR [ecx+2164]
	push	DWORD PTR [esi+4]
	push	eax
	call	?void_invoke@XNLEnv@@QAEXPAVXContext@@PAVXObject@@H@Z ; XNLEnv::void_invoke
; Line 629
	mov	DWORD PTR __$EHRec$[ebp+8], 1
	cmp	BYTE PTR _thread$2[ebp+4], 0
	je	SHORT $LN20@SCN_AUTOCC
	mov	ecx, DWORD PTR ?gs_env@@3PAVXNLEnv@@A	; gs_env
	push	DWORD PTR _thread$2[ebp]
	mov	eax, DWORD PTR [ecx]
	call	DWORD PTR [eax+64]
$LN20@SCN_AUTOCC:
; Line 632
	mov	ecx, DWORD PTR __$EHRec$[ebp]
	mov	DWORD PTR fs:0, ecx
	pop	ecx
	pop	esi
	mov	esp, ebp
	pop	ebp
	ret	0
_TEXT	ENDS
;	COMDAT text$x
text$x	SEGMENT
__unwindfunclet$?SCN_AUTOCCHARDELETED@ActionReceiver@@AAEXXZ$0:
	lea	ecx, DWORD PTR _thread$2[ebp]
	jmp	??1XThread@@QAE@XZ			; XThread::~XThread
__unwindfunclet$?SCN_AUTOCCHARDELETED@ActionReceiver@@AAEXXZ$1:
	call	___std_terminate
	ret	0
__ehhandler$?SCN_AUTOCCHARDELETED@ActionReceiver@@AAEXXZ:
	mov	edx, DWORD PTR [esp+8]
	lea	eax, DWORD PTR [edx+12]
	mov	ecx, DWORD PTR [edx-20]
	xor	ecx, eax
	call	@__security_check_cookie@4
	mov	eax, OFFSET __ehfuncinfo$?SCN_AUTOCCHARDELETED@ActionReceiver@@AAEXXZ
	jmp	___CxxFrameHandler3
text$x	ENDS
?SCN_AUTOCCHARDELETED@ActionReceiver@@AAEXXZ ENDP	; ActionReceiver::SCN_AUTOCCHARDELETED
; Function compile flags: /Ogtpy
;	COMDAT ?SCN_AUTOCCOMPLETED@ActionReceiver@@AAEXPBDHHH@Z
_TEXT	SEGMENT
_selection$dead$ = 8					; size = 4
_position$dead$ = 12					; size = 4
_ch$dead$ = 16						; size = 4
_method$dead$ = 20					; size = 4
?SCN_AUTOCCOMPLETED@ActionReceiver@@AAEXPBDHHH@Z PROC	; ActionReceiver::SCN_AUTOCCOMPLETED, COMDAT
; _this$dead$ = ecx
; File e:\developments\cadaqs\canamespace\castudio\xcross\xlang\xlang\xlibrarys\qxlibrary\qxlibrary\qxapplication.h
; Line 636
	ret	16					; 00000010H
?SCN_AUTOCCOMPLETED@ActionReceiver@@AAEXPBDHHH@Z ENDP	; ActionReceiver::SCN_AUTOCCOMPLETED
_TEXT	ENDS
; Function compile flags: /Ogtpy
;	COMDAT ?SCN_AUTOCSELECTION@ActionReceiver@@AAEXPBDHHH@Z
_TEXT	SEGMENT
_selection$dead$ = 8					; size = 4
_position$dead$ = 12					; size = 4
_ch$dead$ = 16						; size = 4
_method$dead$ = 20					; size = 4
?SCN_AUTOCSELECTION@ActionReceiver@@AAEXPBDHHH@Z PROC	; ActionReceiver::SCN_AUTOCSELECTION, COMDAT
; _this$dead$ = ecx
; File e:\developments\cadaqs\canamespace\castudio\xcross\xlang\xlang\xlibrarys\qxlibrary\qxlibrary\qxapplication.h
; Line 640
	ret	16					; 00000010H
?SCN_AUTOCSELECTION@ActionReceiver@@AAEXPBDHHH@Z ENDP	; ActionReceiver::SCN_AUTOCSELECTION
_TEXT	ENDS
; Function compile flags: /Ogtpy
;	COMDAT ?SCN_AUTOCSELECTION@ActionReceiver@@AAEXPBDH@Z
_TEXT	SEGMENT
_thread$2 = -24						; size = 8
_pos$1$ = -16						; size = 4
__$EHRec$ = -12						; size = 12
_selection$ = 8						; size = 4
_position$ = 12						; size = 4
?SCN_AUTOCSELECTION@ActionReceiver@@AAEXPBDH@Z PROC	; ActionReceiver::SCN_AUTOCSELECTION, COMDAT
; _this$ = ecx
; File e:\developments\cadaqs\canamespace\castudio\xcross\xlang\xlang\xlibrarys\qxlibrary\qxlibrary\qxapplication.h
; Line 642
	push	ebp
	mov	ebp, esp
	push	-1
	push	__ehhandler$?SCN_AUTOCSELECTION@ActionReceiver@@AAEXPBDH@Z
	mov	eax, DWORD PTR fs:0
	push	eax
	sub	esp, 12					; 0000000cH
	push	ebx
	push	esi
	push	edi
	mov	eax, DWORD PTR ___security_cookie
	xor	eax, ebp
	push	eax
	lea	eax, DWORD PTR __$EHRec$[ebp]
	mov	DWORD PTR fs:0, eax
; Line 643
	call	?sender@QObject@@IBEPAV1@XZ		; QObject::sender
	push	eax
	mov	ecx, OFFSET ?staticMetaObject@QObject@@2UQMetaObject@@B ; QObject::staticMetaObject
	call	?cast@QMetaObject@@QBEPAVQObject@@PAV2@@Z ; QMetaObject::cast
; Line 645
	test	eax, eax
	je	$LN23@SCN_AUTOCS
; Line 646
	push	256					; 00000100H
	mov	ecx, eax
	call	?userData@QObject@@QBEPAVQObjectUserData@@I@Z ; QObject::userData
	mov	esi, eax
; Line 648
	test	esi, esi
	je	$LN23@SCN_AUTOCS
; Line 649
	cmp	DWORD PTR [esi+4], 0
	je	$LN23@SCN_AUTOCS
; Line 650
	mov	BYTE PTR _thread$2[ebp+4], 0
	call	?currentThreadId@QThread@@SAPAXXZ	; QThread::currentThreadId
	cmp	eax, DWORD PTR ?ui_thread_id@@3PAXA	; ui_thread_id
	jne	SHORT $LN13@SCN_AUTOCS
	mov	eax, DWORD PTR ?ui_thread@@3PAVXContext@@A ; ui_thread
	jmp	SHORT $LN28@SCN_AUTOCS
$LN13@SCN_AUTOCS:
	mov	ecx, DWORD PTR ?gs_env@@3PAVXNLEnv@@A	; gs_env
	lea	edx, DWORD PTR _thread$2[ebp+4]
	push	edx
	mov	eax, DWORD PTR [ecx]
	call	DWORD PTR [eax+60]
$LN28@SCN_AUTOCS:
	mov	DWORD PTR _thread$2[ebp], eax
	mov	DWORD PTR __$EHRec$[ebp+8], 0
; Line 651
	mov	ecx, DWORD PTR ?gs_env@@3PAVXNLEnv@@A	; gs_env
	mov	eax, DWORD PTR [ecx]
	call	DWORD PTR [eax+160]
; Line 652
	mov	ecx, DWORD PTR ?gs_env@@3PAVXNLEnv@@A	; gs_env
	mov	ebx, eax
	mov	edx, DWORD PTR [ecx]
	call	DWORD PTR [edx+160]
; Line 653
	mov	edi, DWORD PTR _selection$[ebp]
	mov	DWORD PTR _pos$1$[ebp], eax
	test	edi, edi
	je	SHORT $LN5@SCN_AUTOCS
; Line 654
	mov	edx, edi
	lea	ecx, DWORD PTR [edx+1]
	npad	2
$LL26@SCN_AUTOCS:
	mov	al, BYTE PTR [edx]
	inc	edx
	test	al, al
	jne	SHORT $LL26@SCN_AUTOCS
	sub	edx, ecx
	mov	ecx, DWORD PTR ?gs_env@@3PAVXNLEnv@@A	; gs_env
	push	edx
	push	edi
	push	ebx
	mov	eax, DWORD PTR [ecx]
	push	DWORD PTR _thread$2[ebp]
	call	DWORD PTR [eax+84]
$LN5@SCN_AUTOCS:
; Line 656
	mov	ecx, DWORD PTR ?gs_env@@3PAVXNLEnv@@A	; gs_env
	push	DWORD PTR _position$[ebp]
	mov	edi, DWORD PTR _pos$1$[ebp]
	push	edi
	mov	eax, DWORD PTR [ecx]
	call	DWORD PTR [eax+100]
; Line 657
	mov	eax, DWORD PTR ?methodIdent@@3PAUXIDENT@@A ; methodIdent
	push	edi
	push	ebx
	push	DWORD PTR [eax+2188]
	push	DWORD PTR [esi+4]
	push	DWORD PTR _thread$2[ebp]
	call	??$void_invoke@PAVXObject@@PAV1@@XNLEnv@@QAEXPAVXContext@@PAVXObject@@H11@Z ; XNLEnv::void_invoke<XObject *,XObject *>
; Line 658
	mov	ecx, DWORD PTR ?gs_env@@3PAVXNLEnv@@A	; gs_env
	push	ebx
	mov	eax, DWORD PTR [ecx]
	call	DWORD PTR [eax+72]
; Line 659
	mov	ecx, DWORD PTR ?gs_env@@3PAVXNLEnv@@A	; gs_env
	push	edi
	mov	eax, DWORD PTR [ecx]
	call	DWORD PTR [eax+72]
; Line 660
	mov	DWORD PTR __$EHRec$[ebp+8], 1
	cmp	BYTE PTR _thread$2[ebp+4], 0
	je	SHORT $LN23@SCN_AUTOCS
	mov	ecx, DWORD PTR ?gs_env@@3PAVXNLEnv@@A	; gs_env
	push	DWORD PTR _thread$2[ebp]
	mov	eax, DWORD PTR [ecx]
	call	DWORD PTR [eax+64]
$LN23@SCN_AUTOCS:
; Line 663
	mov	ecx, DWORD PTR __$EHRec$[ebp]
	mov	DWORD PTR fs:0, ecx
	pop	ecx
	pop	edi
	pop	esi
	pop	ebx
	mov	esp, ebp
	pop	ebp
	ret	8
_TEXT	ENDS
;	COMDAT text$x
text$x	SEGMENT
__unwindfunclet$?SCN_AUTOCSELECTION@ActionReceiver@@AAEXPBDH@Z$0:
	lea	ecx, DWORD PTR _thread$2[ebp]
	jmp	??1XThread@@QAE@XZ			; XThread::~XThread
__unwindfunclet$?SCN_AUTOCSELECTION@ActionReceiver@@AAEXPBDH@Z$1:
	call	___std_terminate
	ret	0
__ehhandler$?SCN_AUTOCSELECTION@ActionReceiver@@AAEXPBDH@Z:
	mov	edx, DWORD PTR [esp+8]
	lea	eax, DWORD PTR [edx+12]
	mov	ecx, DWORD PTR [edx-28]
	xor	ecx, eax
	call	@__security_check_cookie@4
	mov	eax, OFFSET __ehfuncinfo$?SCN_AUTOCSELECTION@ActionReceiver@@AAEXPBDH@Z
	jmp	___CxxFrameHandler3
text$x	ENDS
?SCN_AUTOCSELECTION@ActionReceiver@@AAEXPBDH@Z ENDP	; ActionReceiver::SCN_AUTOCSELECTION
; Function compile flags: /Ogtpy
;	COMDAT ?SCEN_CHANGE@ActionReceiver@@AAEXXZ
_TEXT	SEGMENT
_thread$2 = -20						; size = 8
__$EHRec$ = -12						; size = 12
?SCEN_CHANGE@ActionReceiver@@AAEXXZ PROC		; ActionReceiver::SCEN_CHANGE, COMDAT
; _this$ = ecx
; File e:\developments\cadaqs\canamespace\castudio\xcross\xlang\xlang\xlibrarys\qxlibrary\qxlibrary\qxapplication.h
; Line 665
	push	ebp
	mov	ebp, esp
	push	-1
	push	__ehhandler$?SCEN_CHANGE@ActionReceiver@@AAEXXZ
	mov	eax, DWORD PTR fs:0
	push	eax
	sub	esp, 12					; 0000000cH
	push	esi
	mov	eax, DWORD PTR ___security_cookie
	xor	eax, ebp
	push	eax
	lea	eax, DWORD PTR __$EHRec$[ebp]
	mov	DWORD PTR fs:0, eax
; Line 666
	call	?sender@QObject@@IBEPAV1@XZ		; QObject::sender
	push	eax
	mov	ecx, OFFSET ?staticMetaObject@QObject@@2UQMetaObject@@B ; QObject::staticMetaObject
	call	?cast@QMetaObject@@QBEPAVQObject@@PAV2@@Z ; QMetaObject::cast
; Line 668
	test	eax, eax
	je	SHORT $LN20@SCEN_CHANG
; Line 669
	push	256					; 00000100H
	mov	ecx, eax
	call	?userData@QObject@@QBEPAVQObjectUserData@@I@Z ; QObject::userData
	mov	esi, eax
; Line 671
	test	esi, esi
	je	SHORT $LN20@SCEN_CHANG
; Line 672
	cmp	DWORD PTR [esi+4], 0
	je	SHORT $LN20@SCEN_CHANG
; Line 673
	mov	BYTE PTR _thread$2[ebp+4], 0
	call	?currentThreadId@QThread@@SAPAXXZ	; QThread::currentThreadId
	cmp	eax, DWORD PTR ?ui_thread_id@@3PAXA	; ui_thread_id
	jne	SHORT $LN12@SCEN_CHANG
	mov	eax, DWORD PTR ?ui_thread@@3PAVXContext@@A ; ui_thread
	jmp	SHORT $LN24@SCEN_CHANG
$LN12@SCEN_CHANG:
	mov	ecx, DWORD PTR ?gs_env@@3PAVXNLEnv@@A	; gs_env
	lea	edx, DWORD PTR _thread$2[ebp+4]
	push	edx
	mov	eax, DWORD PTR [ecx]
	call	DWORD PTR [eax+60]
$LN24@SCEN_CHANG:
	mov	DWORD PTR _thread$2[ebp], eax
	mov	DWORD PTR __$EHRec$[ebp+8], 0
; Line 674
	mov	ecx, DWORD PTR ?methodIdent@@3PAUXIDENT@@A ; methodIdent
	push	DWORD PTR [ecx+1932]
	push	DWORD PTR [esi+4]
	push	eax
	call	?void_invoke@XNLEnv@@QAEXPAVXContext@@PAVXObject@@H@Z ; XNLEnv::void_invoke
; Line 675
	mov	DWORD PTR __$EHRec$[ebp+8], 1
	cmp	BYTE PTR _thread$2[ebp+4], 0
	je	SHORT $LN20@SCEN_CHANG
	mov	ecx, DWORD PTR ?gs_env@@3PAVXNLEnv@@A	; gs_env
	push	DWORD PTR _thread$2[ebp]
	mov	eax, DWORD PTR [ecx]
	call	DWORD PTR [eax+64]
$LN20@SCEN_CHANG:
; Line 678
	mov	ecx, DWORD PTR __$EHRec$[ebp]
	mov	DWORD PTR fs:0, ecx
	pop	ecx
	pop	esi
	mov	esp, ebp
	pop	ebp
	ret	0
_TEXT	ENDS
;	COMDAT text$x
text$x	SEGMENT
__unwindfunclet$?SCEN_CHANGE@ActionReceiver@@AAEXXZ$0:
	lea	ecx, DWORD PTR _thread$2[ebp]
	jmp	??1XThread@@QAE@XZ			; XThread::~XThread
__unwindfunclet$?SCEN_CHANGE@ActionReceiver@@AAEXXZ$1:
	call	___std_terminate
	ret	0
__ehhandler$?SCEN_CHANGE@ActionReceiver@@AAEXXZ:
	mov	edx, DWORD PTR [esp+8]
	lea	eax, DWORD PTR [edx+12]
	mov	ecx, DWORD PTR [edx-20]
	xor	ecx, eax
	call	@__security_check_cookie@4
	mov	eax, OFFSET __ehfuncinfo$?SCEN_CHANGE@ActionReceiver@@AAEXXZ
	jmp	___CxxFrameHandler3
text$x	ENDS
?SCEN_CHANGE@ActionReceiver@@AAEXXZ ENDP		; ActionReceiver::SCEN_CHANGE
; Function compile flags: /Ogtpy
;	COMDAT ?SCN_CALLTIPCLICK@ActionReceiver@@AAEXH@Z
_TEXT	SEGMENT
_thread$2 = -24						; size = 8
__$EHRec$ = -12						; size = 12
_direction$ = 8						; size = 4
?SCN_CALLTIPCLICK@ActionReceiver@@AAEXH@Z PROC		; ActionReceiver::SCN_CALLTIPCLICK, COMDAT
; _this$ = ecx
; File e:\developments\cadaqs\canamespace\castudio\xcross\xlang\xlang\xlibrarys\qxlibrary\qxlibrary\qxapplication.h
; Line 680
	push	ebp
	mov	ebp, esp
	push	-1
	push	__ehhandler$?SCN_CALLTIPCLICK@ActionReceiver@@AAEXH@Z
	mov	eax, DWORD PTR fs:0
	push	eax
	sub	esp, 12					; 0000000cH
	push	esi
	push	edi
	mov	eax, DWORD PTR ___security_cookie
	xor	eax, ebp
	push	eax
	lea	eax, DWORD PTR __$EHRec$[ebp]
	mov	DWORD PTR fs:0, eax
; Line 681
	call	?sender@QObject@@IBEPAV1@XZ		; QObject::sender
	push	eax
	mov	ecx, OFFSET ?staticMetaObject@QObject@@2UQMetaObject@@B ; QObject::staticMetaObject
	call	?cast@QMetaObject@@QBEPAVQObject@@PAV2@@Z ; QMetaObject::cast
; Line 683
	test	eax, eax
	je	$LN20@SCN_CALLTI
; Line 684
	push	256					; 00000100H
	mov	ecx, eax
	call	?userData@QObject@@QBEPAVQObjectUserData@@I@Z ; QObject::userData
	mov	edi, eax
; Line 686
	test	edi, edi
	je	$LN20@SCN_CALLTI
; Line 687
	cmp	DWORD PTR [edi+4], 0
	je	$LN20@SCN_CALLTI
; Line 688
	mov	BYTE PTR _thread$2[ebp+4], 0
	call	?currentThreadId@QThread@@SAPAXXZ	; QThread::currentThreadId
	cmp	eax, DWORD PTR ?ui_thread_id@@3PAXA	; ui_thread_id
	jne	SHORT $LN12@SCN_CALLTI
	mov	eax, DWORD PTR ?ui_thread@@3PAVXContext@@A ; ui_thread
	jmp	SHORT $LN24@SCN_CALLTI
$LN12@SCN_CALLTI:
	mov	ecx, DWORD PTR ?gs_env@@3PAVXNLEnv@@A	; gs_env
	lea	edx, DWORD PTR _thread$2[ebp+4]
	push	edx
	mov	eax, DWORD PTR [ecx]
	call	DWORD PTR [eax+60]
$LN24@SCN_CALLTI:
	mov	DWORD PTR _thread$2[ebp], eax
	mov	DWORD PTR __$EHRec$[ebp+8], 0
; Line 689
	mov	ecx, DWORD PTR ?gs_env@@3PAVXNLEnv@@A	; gs_env
	mov	eax, DWORD PTR [ecx]
	call	DWORD PTR [eax+160]
; Line 690
	mov	ecx, DWORD PTR ?gs_env@@3PAVXNLEnv@@A	; gs_env
	mov	esi, eax
	push	DWORD PTR _direction$[ebp]
	push	esi
	mov	edx, DWORD PTR [ecx]
	call	DWORD PTR [edx+100]
; Line 691
	mov	eax, DWORD PTR ?methodIdent@@3PAUXIDENT@@A ; methodIdent
	push	esi
	push	DWORD PTR [eax+1940]
	push	DWORD PTR [edi+4]
	push	DWORD PTR _thread$2[ebp]
	call	??$void_invoke@PAVXObject@@$$V@XNLEnv@@QAEXPAVXContext@@PAVXObject@@H1@Z ; XNLEnv::void_invoke<XObject *>
; Line 692
	mov	ecx, DWORD PTR ?gs_env@@3PAVXNLEnv@@A	; gs_env
	push	esi
	mov	eax, DWORD PTR [ecx]
	call	DWORD PTR [eax+72]
; Line 693
	mov	DWORD PTR __$EHRec$[ebp+8], 1
	cmp	BYTE PTR _thread$2[ebp+4], 0
	je	SHORT $LN20@SCN_CALLTI
	mov	ecx, DWORD PTR ?gs_env@@3PAVXNLEnv@@A	; gs_env
	push	DWORD PTR _thread$2[ebp]
	mov	eax, DWORD PTR [ecx]
	call	DWORD PTR [eax+64]
$LN20@SCN_CALLTI:
; Line 696
	mov	ecx, DWORD PTR __$EHRec$[ebp]
	mov	DWORD PTR fs:0, ecx
	pop	ecx
	pop	edi
	pop	esi
	mov	esp, ebp
	pop	ebp
	ret	4
_TEXT	ENDS
;	COMDAT text$x
text$x	SEGMENT
__unwindfunclet$?SCN_CALLTIPCLICK@ActionReceiver@@AAEXH@Z$0:
	lea	ecx, DWORD PTR _thread$2[ebp]
	jmp	??1XThread@@QAE@XZ			; XThread::~XThread
__unwindfunclet$?SCN_CALLTIPCLICK@ActionReceiver@@AAEXH@Z$1:
	call	___std_terminate
	ret	0
__ehhandler$?SCN_CALLTIPCLICK@ActionReceiver@@AAEXH@Z:
	mov	edx, DWORD PTR [esp+8]
	lea	eax, DWORD PTR [edx+12]
	mov	ecx, DWORD PTR [edx-24]
	xor	ecx, eax
	call	@__security_check_cookie@4
	mov	eax, OFFSET __ehfuncinfo$?SCN_CALLTIPCLICK@ActionReceiver@@AAEXH@Z
	jmp	___CxxFrameHandler3
text$x	ENDS
?SCN_CALLTIPCLICK@ActionReceiver@@AAEXH@Z ENDP		; ActionReceiver::SCN_CALLTIPCLICK
; Function compile flags: /Ogtpy
;	COMDAT ?SCN_CHARADDED@ActionReceiver@@AAEXH@Z
_TEXT	SEGMENT
_thread$2 = -24						; size = 8
__$EHRec$ = -12						; size = 12
_charadded$ = 8						; size = 4
?SCN_CHARADDED@ActionReceiver@@AAEXH@Z PROC		; ActionReceiver::SCN_CHARADDED, COMDAT
; _this$ = ecx
; File e:\developments\cadaqs\canamespace\castudio\xcross\xlang\xlang\xlibrarys\qxlibrary\qxlibrary\qxapplication.h
; Line 698
	push	ebp
	mov	ebp, esp
	push	-1
	push	__ehhandler$?SCN_CHARADDED@ActionReceiver@@AAEXH@Z
	mov	eax, DWORD PTR fs:0
	push	eax
	sub	esp, 12					; 0000000cH
	push	esi
	push	edi
	mov	eax, DWORD PTR ___security_cookie
	xor	eax, ebp
	push	eax
	lea	eax, DWORD PTR __$EHRec$[ebp]
	mov	DWORD PTR fs:0, eax
; Line 699
	call	?sender@QObject@@IBEPAV1@XZ		; QObject::sender
	push	eax
	mov	ecx, OFFSET ?staticMetaObject@QObject@@2UQMetaObject@@B ; QObject::staticMetaObject
	call	?cast@QMetaObject@@QBEPAVQObject@@PAV2@@Z ; QMetaObject::cast
; Line 701
	test	eax, eax
	je	$LN20@SCN_CHARAD
; Line 702
	push	256					; 00000100H
	mov	ecx, eax
	call	?userData@QObject@@QBEPAVQObjectUserData@@I@Z ; QObject::userData
	mov	edi, eax
; Line 704
	test	edi, edi
	je	$LN20@SCN_CHARAD
; Line 705
	cmp	DWORD PTR [edi+4], 0
	je	$LN20@SCN_CHARAD
; Line 706
	mov	BYTE PTR _thread$2[ebp+4], 0
	call	?currentThreadId@QThread@@SAPAXXZ	; QThread::currentThreadId
	cmp	eax, DWORD PTR ?ui_thread_id@@3PAXA	; ui_thread_id
	jne	SHORT $LN12@SCN_CHARAD
	mov	eax, DWORD PTR ?ui_thread@@3PAVXContext@@A ; ui_thread
	jmp	SHORT $LN24@SCN_CHARAD
$LN12@SCN_CHARAD:
	mov	ecx, DWORD PTR ?gs_env@@3PAVXNLEnv@@A	; gs_env
	lea	edx, DWORD PTR _thread$2[ebp+4]
	push	edx
	mov	eax, DWORD PTR [ecx]
	call	DWORD PTR [eax+60]
$LN24@SCN_CHARAD:
	mov	DWORD PTR _thread$2[ebp], eax
	mov	DWORD PTR __$EHRec$[ebp+8], 0
; Line 707
	mov	ecx, DWORD PTR ?gs_env@@3PAVXNLEnv@@A	; gs_env
	mov	eax, DWORD PTR [ecx]
	call	DWORD PTR [eax+160]
; Line 708
	mov	ecx, DWORD PTR ?gs_env@@3PAVXNLEnv@@A	; gs_env
	mov	esi, eax
	push	DWORD PTR _charadded$[ebp]
	push	esi
	mov	edx, DWORD PTR [ecx]
	call	DWORD PTR [edx+100]
; Line 709
	mov	eax, DWORD PTR ?methodIdent@@3PAUXIDENT@@A ; methodIdent
	push	esi
	push	DWORD PTR [eax+1948]
	push	DWORD PTR [edi+4]
	push	DWORD PTR _thread$2[ebp]
	call	??$void_invoke@PAVXObject@@$$V@XNLEnv@@QAEXPAVXContext@@PAVXObject@@H1@Z ; XNLEnv::void_invoke<XObject *>
; Line 710
	mov	ecx, DWORD PTR ?gs_env@@3PAVXNLEnv@@A	; gs_env
	push	esi
	mov	eax, DWORD PTR [ecx]
	call	DWORD PTR [eax+72]
; Line 711
	mov	DWORD PTR __$EHRec$[ebp+8], 1
	cmp	BYTE PTR _thread$2[ebp+4], 0
	je	SHORT $LN20@SCN_CHARAD
	mov	ecx, DWORD PTR ?gs_env@@3PAVXNLEnv@@A	; gs_env
	push	DWORD PTR _thread$2[ebp]
	mov	eax, DWORD PTR [ecx]
	call	DWORD PTR [eax+64]
$LN20@SCN_CHARAD:
; Line 714
	mov	ecx, DWORD PTR __$EHRec$[ebp]
	mov	DWORD PTR fs:0, ecx
	pop	ecx
	pop	edi
	pop	esi
	mov	esp, ebp
	pop	ebp
	ret	4
_TEXT	ENDS
;	COMDAT text$x
text$x	SEGMENT
__unwindfunclet$?SCN_CHARADDED@ActionReceiver@@AAEXH@Z$0:
	lea	ecx, DWORD PTR _thread$2[ebp]
	jmp	??1XThread@@QAE@XZ			; XThread::~XThread
__unwindfunclet$?SCN_CHARADDED@ActionReceiver@@AAEXH@Z$1:
	call	___std_terminate
	ret	0
__ehhandler$?SCN_CHARADDED@ActionReceiver@@AAEXH@Z:
	mov	edx, DWORD PTR [esp+8]
	lea	eax, DWORD PTR [edx+12]
	mov	ecx, DWORD PTR [edx-24]
	xor	ecx, eax
	call	@__security_check_cookie@4
	mov	eax, OFFSET __ehfuncinfo$?SCN_CHARADDED@ActionReceiver@@AAEXH@Z
	jmp	___CxxFrameHandler3
text$x	ENDS
?SCN_CHARADDED@ActionReceiver@@AAEXH@Z ENDP		; ActionReceiver::SCN_CHARADDED
; Function compile flags: /Ogtpy
;	COMDAT ?SCN_DOUBLECLICK@ActionReceiver@@AAEXHHH@Z
_TEXT	SEGMENT
_thread$2 = -28						; size = 8
_objectData$1$ = -20					; size = 4
__$EHRec$ = -12						; size = 12
_position$ = 8						; size = 4
_line$ = 12						; size = 4
_modifiers$ = 16					; size = 4
?SCN_DOUBLECLICK@ActionReceiver@@AAEXHHH@Z PROC		; ActionReceiver::SCN_DOUBLECLICK, COMDAT
; _this$ = ecx
; File e:\developments\cadaqs\canamespace\castudio\xcross\xlang\xlang\xlibrarys\qxlibrary\qxlibrary\qxapplication.h
; Line 716
	push	ebp
	mov	ebp, esp
	push	-1
	push	__ehhandler$?SCN_DOUBLECLICK@ActionReceiver@@AAEXHHH@Z
	mov	eax, DWORD PTR fs:0
	push	eax
	sub	esp, 16					; 00000010H
	push	ebx
	push	esi
	push	edi
	mov	eax, DWORD PTR ___security_cookie
	xor	eax, ebp
	push	eax
	lea	eax, DWORD PTR __$EHRec$[ebp]
	mov	DWORD PTR fs:0, eax
; Line 717
	call	?sender@QObject@@IBEPAV1@XZ		; QObject::sender
	push	eax
	mov	ecx, OFFSET ?staticMetaObject@QObject@@2UQMetaObject@@B ; QObject::staticMetaObject
	call	?cast@QMetaObject@@QBEPAVQObject@@PAV2@@Z ; QMetaObject::cast
; Line 719
	test	eax, eax
	je	$LN20@SCN_DOUBLE
; Line 720
	push	256					; 00000100H
	mov	ecx, eax
	call	?userData@QObject@@QBEPAVQObjectUserData@@I@Z ; QObject::userData
	mov	DWORD PTR _objectData$1$[ebp], eax
; Line 722
	test	eax, eax
	je	$LN20@SCN_DOUBLE
; Line 723
	cmp	DWORD PTR [eax+4], 0
	je	$LN20@SCN_DOUBLE
; Line 724
	mov	BYTE PTR _thread$2[ebp+4], 0
	call	?currentThreadId@QThread@@SAPAXXZ	; QThread::currentThreadId
	cmp	eax, DWORD PTR ?ui_thread_id@@3PAXA	; ui_thread_id
	jne	SHORT $LN12@SCN_DOUBLE
	mov	eax, DWORD PTR ?ui_thread@@3PAVXContext@@A ; ui_thread
	jmp	SHORT $LN24@SCN_DOUBLE
$LN12@SCN_DOUBLE:
	mov	ecx, DWORD PTR ?gs_env@@3PAVXNLEnv@@A	; gs_env
	lea	edx, DWORD PTR _thread$2[ebp+4]
	push	edx
	mov	eax, DWORD PTR [ecx]
	call	DWORD PTR [eax+60]
$LN24@SCN_DOUBLE:
	mov	DWORD PTR _thread$2[ebp], eax
	mov	DWORD PTR __$EHRec$[ebp+8], 0
; Line 725
	mov	ecx, DWORD PTR ?gs_env@@3PAVXNLEnv@@A	; gs_env
	mov	eax, DWORD PTR [ecx]
	call	DWORD PTR [eax+160]
; Line 726
	mov	ecx, DWORD PTR ?gs_env@@3PAVXNLEnv@@A	; gs_env
	mov	esi, eax
	mov	edx, DWORD PTR [ecx]
	call	DWORD PTR [edx+160]
; Line 727
	mov	ecx, DWORD PTR ?gs_env@@3PAVXNLEnv@@A	; gs_env
	mov	edi, eax
	mov	edx, DWORD PTR [ecx]
	call	DWORD PTR [edx+160]
; Line 728
	mov	ecx, DWORD PTR ?gs_env@@3PAVXNLEnv@@A	; gs_env
	mov	ebx, eax
	push	DWORD PTR _position$[ebp]
	push	esi
	mov	edx, DWORD PTR [ecx]
	call	DWORD PTR [edx+100]
; Line 729
	mov	ecx, DWORD PTR ?gs_env@@3PAVXNLEnv@@A	; gs_env
	push	DWORD PTR _line$[ebp]
	push	edi
	mov	eax, DWORD PTR [ecx]
	call	DWORD PTR [eax+100]
; Line 730
	mov	ecx, DWORD PTR ?gs_env@@3PAVXNLEnv@@A	; gs_env
	push	DWORD PTR _modifiers$[ebp]
	push	ebx
	mov	eax, DWORD PTR [ecx]
	call	DWORD PTR [eax+100]
; Line 731
	mov	eax, DWORD PTR ?methodIdent@@3PAUXIDENT@@A ; methodIdent
	push	ebx
	push	edi
	push	esi
	push	DWORD PTR [eax+1956]
	mov	eax, DWORD PTR _objectData$1$[ebp]
	push	DWORD PTR [eax+4]
	push	DWORD PTR _thread$2[ebp]
	call	??$void_invoke@PAVXObject@@PAV1@PAV1@@XNLEnv@@QAEXPAVXContext@@PAVXObject@@H111@Z ; XNLEnv::void_invoke<XObject *,XObject *,XObject *>
; Line 732
	mov	ecx, DWORD PTR ?gs_env@@3PAVXNLEnv@@A	; gs_env
	push	esi
	mov	eax, DWORD PTR [ecx]
	call	DWORD PTR [eax+72]
; Line 733
	mov	ecx, DWORD PTR ?gs_env@@3PAVXNLEnv@@A	; gs_env
	push	edi
	mov	eax, DWORD PTR [ecx]
	call	DWORD PTR [eax+72]
; Line 734
	mov	ecx, DWORD PTR ?gs_env@@3PAVXNLEnv@@A	; gs_env
	push	ebx
	mov	eax, DWORD PTR [ecx]
	call	DWORD PTR [eax+72]
; Line 735
	mov	DWORD PTR __$EHRec$[ebp+8], 1
	cmp	BYTE PTR _thread$2[ebp+4], 0
	je	SHORT $LN20@SCN_DOUBLE
	mov	ecx, DWORD PTR ?gs_env@@3PAVXNLEnv@@A	; gs_env
	push	DWORD PTR _thread$2[ebp]
	mov	eax, DWORD PTR [ecx]
	call	DWORD PTR [eax+64]
$LN20@SCN_DOUBLE:
; Line 738
	mov	ecx, DWORD PTR __$EHRec$[ebp]
	mov	DWORD PTR fs:0, ecx
	pop	ecx
	pop	edi
	pop	esi
	pop	ebx
	mov	esp, ebp
	pop	ebp
	ret	12					; 0000000cH
_TEXT	ENDS
;	COMDAT text$x
text$x	SEGMENT
__unwindfunclet$?SCN_DOUBLECLICK@ActionReceiver@@AAEXHHH@Z$0:
	lea	ecx, DWORD PTR _thread$2[ebp]
	jmp	??1XThread@@QAE@XZ			; XThread::~XThread
__unwindfunclet$?SCN_DOUBLECLICK@ActionReceiver@@AAEXHHH@Z$1:
	call	___std_terminate
	ret	0
__ehhandler$?SCN_DOUBLECLICK@ActionReceiver@@AAEXHHH@Z:
	mov	edx, DWORD PTR [esp+8]
	lea	eax, DWORD PTR [edx+12]
	mov	ecx, DWORD PTR [edx-32]
	xor	ecx, eax
	call	@__security_check_cookie@4
	mov	eax, OFFSET __ehfuncinfo$?SCN_DOUBLECLICK@ActionReceiver@@AAEXHHH@Z
	jmp	___CxxFrameHandler3
text$x	ENDS
?SCN_DOUBLECLICK@ActionReceiver@@AAEXHHH@Z ENDP		; ActionReceiver::SCN_DOUBLECLICK
; Function compile flags: /Ogtpy
;	COMDAT ?SCN_DWELLEND@ActionReceiver@@AAEXHHH@Z
_TEXT	SEGMENT
_thread$2 = -28						; size = 8
_objectData$1$ = -20					; size = 4
__$EHRec$ = -12						; size = 12
_position$ = 8						; size = 4
_x$ = 12						; size = 4
_y$ = 16						; size = 4
?SCN_DWELLEND@ActionReceiver@@AAEXHHH@Z PROC		; ActionReceiver::SCN_DWELLEND, COMDAT
; _this$ = ecx
; File e:\developments\cadaqs\canamespace\castudio\xcross\xlang\xlang\xlibrarys\qxlibrary\qxlibrary\qxapplication.h
; Line 740
	push	ebp
	mov	ebp, esp
	push	-1
	push	__ehhandler$?SCN_DWELLEND@ActionReceiver@@AAEXHHH@Z
	mov	eax, DWORD PTR fs:0
	push	eax
	sub	esp, 16					; 00000010H
	push	ebx
	push	esi
	push	edi
	mov	eax, DWORD PTR ___security_cookie
	xor	eax, ebp
	push	eax
	lea	eax, DWORD PTR __$EHRec$[ebp]
	mov	DWORD PTR fs:0, eax
; Line 741
	call	?sender@QObject@@IBEPAV1@XZ		; QObject::sender
	push	eax
	mov	ecx, OFFSET ?staticMetaObject@QObject@@2UQMetaObject@@B ; QObject::staticMetaObject
	call	?cast@QMetaObject@@QBEPAVQObject@@PAV2@@Z ; QMetaObject::cast
; Line 743
	test	eax, eax
	je	$LN20@SCN_DWELLE
; Line 744
	push	256					; 00000100H
	mov	ecx, eax
	call	?userData@QObject@@QBEPAVQObjectUserData@@I@Z ; QObject::userData
	mov	DWORD PTR _objectData$1$[ebp], eax
; Line 746
	test	eax, eax
	je	$LN20@SCN_DWELLE
; Line 747
	cmp	DWORD PTR [eax+4], 0
	je	$LN20@SCN_DWELLE
; Line 748
	mov	BYTE PTR _thread$2[ebp+4], 0
	call	?currentThreadId@QThread@@SAPAXXZ	; QThread::currentThreadId
	cmp	eax, DWORD PTR ?ui_thread_id@@3PAXA	; ui_thread_id
	jne	SHORT $LN12@SCN_DWELLE
	mov	eax, DWORD PTR ?ui_thread@@3PAVXContext@@A ; ui_thread
	jmp	SHORT $LN24@SCN_DWELLE
$LN12@SCN_DWELLE:
	mov	ecx, DWORD PTR ?gs_env@@3PAVXNLEnv@@A	; gs_env
	lea	edx, DWORD PTR _thread$2[ebp+4]
	push	edx
	mov	eax, DWORD PTR [ecx]
	call	DWORD PTR [eax+60]
$LN24@SCN_DWELLE:
	mov	DWORD PTR _thread$2[ebp], eax
	mov	DWORD PTR __$EHRec$[ebp+8], 0
; Line 749
	mov	ecx, DWORD PTR ?gs_env@@3PAVXNLEnv@@A	; gs_env
	mov	eax, DWORD PTR [ecx]
	call	DWORD PTR [eax+160]
; Line 750
	mov	ecx, DWORD PTR ?gs_env@@3PAVXNLEnv@@A	; gs_env
	mov	esi, eax
	mov	edx, DWORD PTR [ecx]
	call	DWORD PTR [edx+160]
; Line 751
	mov	ecx, DWORD PTR ?gs_env@@3PAVXNLEnv@@A	; gs_env
	mov	edi, eax
	mov	edx, DWORD PTR [ecx]
	call	DWORD PTR [edx+160]
; Line 752
	mov	ecx, DWORD PTR ?gs_env@@3PAVXNLEnv@@A	; gs_env
	mov	ebx, eax
	push	DWORD PTR _position$[ebp]
	push	esi
	mov	edx, DWORD PTR [ecx]
	call	DWORD PTR [edx+100]
; Line 753
	mov	ecx, DWORD PTR ?gs_env@@3PAVXNLEnv@@A	; gs_env
	push	DWORD PTR _x$[ebp]
	push	edi
	mov	eax, DWORD PTR [ecx]
	call	DWORD PTR [eax+100]
; Line 754
	mov	ecx, DWORD PTR ?gs_env@@3PAVXNLEnv@@A	; gs_env
	push	DWORD PTR _y$[ebp]
	push	ebx
	mov	eax, DWORD PTR [ecx]
	call	DWORD PTR [eax+100]
; Line 755
	mov	eax, DWORD PTR ?methodIdent@@3PAUXIDENT@@A ; methodIdent
	push	ebx
	push	edi
	push	esi
	push	DWORD PTR [eax+1964]
	mov	eax, DWORD PTR _objectData$1$[ebp]
	push	DWORD PTR [eax+4]
	push	DWORD PTR _thread$2[ebp]
	call	??$void_invoke@PAVXObject@@PAV1@PAV1@@XNLEnv@@QAEXPAVXContext@@PAVXObject@@H111@Z ; XNLEnv::void_invoke<XObject *,XObject *,XObject *>
; Line 756
	mov	ecx, DWORD PTR ?gs_env@@3PAVXNLEnv@@A	; gs_env
	push	esi
	mov	eax, DWORD PTR [ecx]
	call	DWORD PTR [eax+72]
; Line 757
	mov	ecx, DWORD PTR ?gs_env@@3PAVXNLEnv@@A	; gs_env
	push	edi
	mov	eax, DWORD PTR [ecx]
	call	DWORD PTR [eax+72]
; Line 758
	mov	ecx, DWORD PTR ?gs_env@@3PAVXNLEnv@@A	; gs_env
	push	ebx
	mov	eax, DWORD PTR [ecx]
	call	DWORD PTR [eax+72]
; Line 759
	mov	DWORD PTR __$EHRec$[ebp+8], 1
	cmp	BYTE PTR _thread$2[ebp+4], 0
	je	SHORT $LN20@SCN_DWELLE
